ARM GAS  C:\DOCUME~1\Remixvit\LOCALS~1\Temp\ccVIFrYa.s 			page 1


   1              		.cpu cortex-m0
   2              		.fpu softvfp
   3              		.eabi_attribute 20, 1
   4              		.eabi_attribute 21, 1
   5              		.eabi_attribute 23, 3
   6              		.eabi_attribute 24, 1
   7              		.eabi_attribute 25, 1
   8              		.eabi_attribute 26, 1
   9              		.eabi_attribute 30, 1
  10              		.eabi_attribute 34, 0
  11              		.eabi_attribute 18, 4
  12              		.code	16
  13              		.file	"ADC.c"
  14              		.text
  15              	.Ltext0:
  16              		.cfi_sections	.debug_frame
  17              		.section	.text.ADC_Init,"ax",%progbits
  18              		.align	2
  19              		.global	ADC_Init
  20              		.code	16
  21              		.thumb_func
  22              		.type	ADC_Init, %function
  23              	ADC_Init:
  24              	.LFB1:
  25              		.file 1 ".\\Generated_Source\\PSoC4\\ADC.c"
   1:.\Generated_Source\PSoC4/ADC.c **** /*******************************************************************************
   2:.\Generated_Source\PSoC4/ADC.c **** * File Name: ADC.c
   3:.\Generated_Source\PSoC4/ADC.c **** * Version 2.20
   4:.\Generated_Source\PSoC4/ADC.c **** *
   5:.\Generated_Source\PSoC4/ADC.c **** * Description:
   6:.\Generated_Source\PSoC4/ADC.c **** *  This file provides the source code to the API for the Sequencing Successive
   7:.\Generated_Source\PSoC4/ADC.c **** *  Approximation ADC Component Component.
   8:.\Generated_Source\PSoC4/ADC.c **** *
   9:.\Generated_Source\PSoC4/ADC.c **** * Note:
  10:.\Generated_Source\PSoC4/ADC.c **** *
  11:.\Generated_Source\PSoC4/ADC.c **** ********************************************************************************
  12:.\Generated_Source\PSoC4/ADC.c **** * Copyright 2008-2015, Cypress Semiconductor Corporation.  All rights reserved.
  13:.\Generated_Source\PSoC4/ADC.c **** * You may use this file only in accordance with the license, terms, conditions,
  14:.\Generated_Source\PSoC4/ADC.c **** * disclaimers, and limitations in the end user license agreement accompanying
  15:.\Generated_Source\PSoC4/ADC.c **** * the software package with which this file was provided.
  16:.\Generated_Source\PSoC4/ADC.c **** *******************************************************************************/
  17:.\Generated_Source\PSoC4/ADC.c **** 
  18:.\Generated_Source\PSoC4/ADC.c **** #include "ADC.h"
  19:.\Generated_Source\PSoC4/ADC.c **** 
  20:.\Generated_Source\PSoC4/ADC.c **** 
  21:.\Generated_Source\PSoC4/ADC.c **** /***************************************
  22:.\Generated_Source\PSoC4/ADC.c **** * Global data allocation
  23:.\Generated_Source\PSoC4/ADC.c **** ***************************************/
  24:.\Generated_Source\PSoC4/ADC.c **** uint8 ADC_initVar = 0u;
  25:.\Generated_Source\PSoC4/ADC.c **** volatile int16 ADC_offset[ADC_TOTAL_CHANNELS_NUM];
  26:.\Generated_Source\PSoC4/ADC.c **** volatile int32 ADC_countsPer10Volt[ADC_TOTAL_CHANNELS_NUM];   /* Gain compensation */
  27:.\Generated_Source\PSoC4/ADC.c **** 
  28:.\Generated_Source\PSoC4/ADC.c **** 
  29:.\Generated_Source\PSoC4/ADC.c **** /***************************************
  30:.\Generated_Source\PSoC4/ADC.c **** * Local data allocation
  31:.\Generated_Source\PSoC4/ADC.c **** ***************************************/
  32:.\Generated_Source\PSoC4/ADC.c **** /* Channels configuration generated by customiser */
ARM GAS  C:\DOCUME~1\Remixvit\LOCALS~1\Temp\ccVIFrYa.s 			page 2


  33:.\Generated_Source\PSoC4/ADC.c **** static const uint32 CYCODE ADC_channelsConfig[] = { 0x00000000u };
  34:.\Generated_Source\PSoC4/ADC.c **** 
  35:.\Generated_Source\PSoC4/ADC.c **** 
  36:.\Generated_Source\PSoC4/ADC.c **** /*******************************************************************************
  37:.\Generated_Source\PSoC4/ADC.c **** * Function Name: ADC_Start
  38:.\Generated_Source\PSoC4/ADC.c **** ********************************************************************************
  39:.\Generated_Source\PSoC4/ADC.c **** *
  40:.\Generated_Source\PSoC4/ADC.c **** * Summary:
  41:.\Generated_Source\PSoC4/ADC.c **** *  Performs all required initialization for this component
  42:.\Generated_Source\PSoC4/ADC.c **** *  and enables the power. The power will be set to the appropriate
  43:.\Generated_Source\PSoC4/ADC.c **** *  power based on the clock frequency.
  44:.\Generated_Source\PSoC4/ADC.c **** *
  45:.\Generated_Source\PSoC4/ADC.c **** * Parameters:
  46:.\Generated_Source\PSoC4/ADC.c **** *  None.
  47:.\Generated_Source\PSoC4/ADC.c **** *
  48:.\Generated_Source\PSoC4/ADC.c **** * Return:
  49:.\Generated_Source\PSoC4/ADC.c **** *  None.
  50:.\Generated_Source\PSoC4/ADC.c **** *
  51:.\Generated_Source\PSoC4/ADC.c **** * Global variables:
  52:.\Generated_Source\PSoC4/ADC.c **** *  The ADC_initVar variable is used to indicate when/if initial
  53:.\Generated_Source\PSoC4/ADC.c **** *  configuration of this component has happened. The variable is initialized to
  54:.\Generated_Source\PSoC4/ADC.c **** *  zero and set to 1 the first time ADC_Start() is called. This allows for
  55:.\Generated_Source\PSoC4/ADC.c **** *  component Re-Start without re-initialization in all subsequent calls to the
  56:.\Generated_Source\PSoC4/ADC.c **** *  ADC_Start() routine.
  57:.\Generated_Source\PSoC4/ADC.c **** *  If re-initialization of the component is required the variable should be set
  58:.\Generated_Source\PSoC4/ADC.c **** *  to zero before call of ADC_Start() routine, or the user may call
  59:.\Generated_Source\PSoC4/ADC.c **** *  ADC_Init() and ADC_Enable() as done in the
  60:.\Generated_Source\PSoC4/ADC.c **** *  ADC_Start() routine.
  61:.\Generated_Source\PSoC4/ADC.c **** *
  62:.\Generated_Source\PSoC4/ADC.c **** *******************************************************************************/
  63:.\Generated_Source\PSoC4/ADC.c **** void ADC_Start(void)
  64:.\Generated_Source\PSoC4/ADC.c **** {
  65:.\Generated_Source\PSoC4/ADC.c ****     /* If not Initialized then initialize all required hardware and software */
  66:.\Generated_Source\PSoC4/ADC.c ****     if(ADC_initVar == 0u)
  67:.\Generated_Source\PSoC4/ADC.c ****     {
  68:.\Generated_Source\PSoC4/ADC.c ****         ADC_Init();
  69:.\Generated_Source\PSoC4/ADC.c ****         ADC_initVar = 1u;
  70:.\Generated_Source\PSoC4/ADC.c ****     }
  71:.\Generated_Source\PSoC4/ADC.c ****     ADC_Enable();
  72:.\Generated_Source\PSoC4/ADC.c **** }
  73:.\Generated_Source\PSoC4/ADC.c **** 
  74:.\Generated_Source\PSoC4/ADC.c **** 
  75:.\Generated_Source\PSoC4/ADC.c **** /*******************************************************************************
  76:.\Generated_Source\PSoC4/ADC.c **** * Function Name: ADC_Init
  77:.\Generated_Source\PSoC4/ADC.c **** ********************************************************************************
  78:.\Generated_Source\PSoC4/ADC.c **** *
  79:.\Generated_Source\PSoC4/ADC.c **** * Summary:
  80:.\Generated_Source\PSoC4/ADC.c **** *  Initialize component's parameters to the parameters set by user in the
  81:.\Generated_Source\PSoC4/ADC.c **** *  customizer of the component placed onto schematic. Usually called in
  82:.\Generated_Source\PSoC4/ADC.c **** *  ADC_Start().
  83:.\Generated_Source\PSoC4/ADC.c **** *
  84:.\Generated_Source\PSoC4/ADC.c **** * Parameters:
  85:.\Generated_Source\PSoC4/ADC.c **** *  None.
  86:.\Generated_Source\PSoC4/ADC.c **** *
  87:.\Generated_Source\PSoC4/ADC.c **** * Return:
  88:.\Generated_Source\PSoC4/ADC.c **** *  None.
  89:.\Generated_Source\PSoC4/ADC.c **** *
ARM GAS  C:\DOCUME~1\Remixvit\LOCALS~1\Temp\ccVIFrYa.s 			page 3


  90:.\Generated_Source\PSoC4/ADC.c **** * Global variables:
  91:.\Generated_Source\PSoC4/ADC.c **** *  The ADC_offset variable is initialized.
  92:.\Generated_Source\PSoC4/ADC.c **** *
  93:.\Generated_Source\PSoC4/ADC.c **** *******************************************************************************/
  94:.\Generated_Source\PSoC4/ADC.c **** void ADC_Init(void)
  95:.\Generated_Source\PSoC4/ADC.c **** {
  26              		.loc 1 95 0
  27              		.cfi_startproc
  28 0000 08B5     		push	{r3, lr}
  29              		.cfi_def_cfa_offset 8
  30              		.cfi_offset 3, -8
  31              		.cfi_offset 14, -4
  96:.\Generated_Source\PSoC4/ADC.c ****     uint32 chNum;
  97:.\Generated_Source\PSoC4/ADC.c ****     uint32 tmpRegVal;
  98:.\Generated_Source\PSoC4/ADC.c ****     int32 counts;
  99:.\Generated_Source\PSoC4/ADC.c **** 
 100:.\Generated_Source\PSoC4/ADC.c ****     #if(ADC_TOTAL_CHANNELS_NUM > 1u)
 101:.\Generated_Source\PSoC4/ADC.c ****         static const uint8 CYCODE ADC_InputsPlacement[] =
 102:.\Generated_Source\PSoC4/ADC.c ****         {
 103:.\Generated_Source\PSoC4/ADC.c ****             (uint8)(ADC_cy_psoc4_sarmux_8__CH_0_PORT << 4u) |
 104:.\Generated_Source\PSoC4/ADC.c ****             (uint8)ADC_cy_psoc4_sarmux_8__CH_0_PIN
 105:.\Generated_Source\PSoC4/ADC.c ****             ,(uint8)(ADC_cy_psoc4_sarmux_8__CH_1_PORT << 4u) |
 106:.\Generated_Source\PSoC4/ADC.c ****              (uint8)ADC_cy_psoc4_sarmux_8__CH_1_PIN
 107:.\Generated_Source\PSoC4/ADC.c ****             #if(ADC_TOTAL_CHANNELS_NUM > 2u)
 108:.\Generated_Source\PSoC4/ADC.c ****                 ,(uint8)(ADC_cy_psoc4_sarmux_8__CH_2_PORT << 4u) |
 109:.\Generated_Source\PSoC4/ADC.c ****                  (uint8)ADC_cy_psoc4_sarmux_8__CH_2_PIN
 110:.\Generated_Source\PSoC4/ADC.c ****             #endif /* End ADC_TOTAL_CHANNELS_NUM > 2u */
 111:.\Generated_Source\PSoC4/ADC.c ****             #if(ADC_TOTAL_CHANNELS_NUM > 3u)
 112:.\Generated_Source\PSoC4/ADC.c ****                 ,(uint8)(ADC_cy_psoc4_sarmux_8__CH_3_PORT << 4u) |
 113:.\Generated_Source\PSoC4/ADC.c ****                  (uint8)ADC_cy_psoc4_sarmux_8__CH_3_PIN
 114:.\Generated_Source\PSoC4/ADC.c ****             #endif /* End ADC_TOTAL_CHANNELS_NUM > 3u */
 115:.\Generated_Source\PSoC4/ADC.c ****             #if(ADC_TOTAL_CHANNELS_NUM > 4u)
 116:.\Generated_Source\PSoC4/ADC.c ****                 ,(uint8)(ADC_cy_psoc4_sarmux_8__CH_4_PORT << 4u) |
 117:.\Generated_Source\PSoC4/ADC.c ****                  (uint8)ADC_cy_psoc4_sarmux_8__CH_4_PIN
 118:.\Generated_Source\PSoC4/ADC.c ****             #endif /* End ADC_TOTAL_CHANNELS_NUM > 4u */
 119:.\Generated_Source\PSoC4/ADC.c ****             #if(ADC_TOTAL_CHANNELS_NUM > 5u)
 120:.\Generated_Source\PSoC4/ADC.c ****                 ,(uint8)(ADC_cy_psoc4_sarmux_8__CH_5_PORT << 4u) |
 121:.\Generated_Source\PSoC4/ADC.c ****                  (uint8)ADC_cy_psoc4_sarmux_8__CH_5_PIN
 122:.\Generated_Source\PSoC4/ADC.c ****             #endif /* End ADC_TOTAL_CHANNELS_NUM > 5u */
 123:.\Generated_Source\PSoC4/ADC.c ****             #if(ADC_TOTAL_CHANNELS_NUM > 6u)
 124:.\Generated_Source\PSoC4/ADC.c ****                 ,(uint8)(ADC_cy_psoc4_sarmux_8__CH_6_PORT << 4u) |
 125:.\Generated_Source\PSoC4/ADC.c ****                  (uint8)ADC_cy_psoc4_sarmux_8__CH_6_PIN
 126:.\Generated_Source\PSoC4/ADC.c ****             #endif /* End ADC_TOTAL_CHANNELS_NUM > 6u */
 127:.\Generated_Source\PSoC4/ADC.c ****             #if(ADC_TOTAL_CHANNELS_NUM > 7u)
 128:.\Generated_Source\PSoC4/ADC.c ****                 ,(uint8)(ADC_cy_psoc4_sarmux_8__CH_7_PORT << 4u) |
 129:.\Generated_Source\PSoC4/ADC.c ****                  (uint8)ADC_cy_psoc4_sarmux_8__CH_7_PIN
 130:.\Generated_Source\PSoC4/ADC.c ****             #endif /* End ADC_TOTAL_CHANNELS_NUM > 7u */
 131:.\Generated_Source\PSoC4/ADC.c ****             #if(ADC_TOTAL_CHANNELS_NUM > 8u)
 132:.\Generated_Source\PSoC4/ADC.c ****                 ,(uint8)(ADC_cy_psoc4_sarmux_8__CH_8_PORT << 4u) |
 133:.\Generated_Source\PSoC4/ADC.c ****                  (uint8)ADC_cy_psoc4_sarmux_8__CH_8_PIN
 134:.\Generated_Source\PSoC4/ADC.c ****             #endif /* End ADC_TOTAL_CHANNELS_NUM > 8u */
 135:.\Generated_Source\PSoC4/ADC.c ****             #if(ADC_TOTAL_CHANNELS_NUM > 9u)
 136:.\Generated_Source\PSoC4/ADC.c ****                 ,(uint8)(ADC_cy_psoc4_sarmux_8__CH_9_PORT << 4u) |
 137:.\Generated_Source\PSoC4/ADC.c ****                  (uint8)ADC_cy_psoc4_sarmux_8__CH_9_PIN
 138:.\Generated_Source\PSoC4/ADC.c ****             #endif /* End ADC_TOTAL_CHANNELS_NUM > 9u */
 139:.\Generated_Source\PSoC4/ADC.c ****             #if(ADC_TOTAL_CHANNELS_NUM > 10u)
 140:.\Generated_Source\PSoC4/ADC.c ****                 ,(uint8)(ADC_cy_psoc4_sarmux_8__CH_10_PORT << 4u) |
ARM GAS  C:\DOCUME~1\Remixvit\LOCALS~1\Temp\ccVIFrYa.s 			page 4


 141:.\Generated_Source\PSoC4/ADC.c ****                  (uint8)ADC_cy_psoc4_sarmux_8__CH_10_PIN
 142:.\Generated_Source\PSoC4/ADC.c ****             #endif /* End ADC_TOTAL_CHANNELS_NUM > 10u */
 143:.\Generated_Source\PSoC4/ADC.c ****             #if(ADC_TOTAL_CHANNELS_NUM > 11u)
 144:.\Generated_Source\PSoC4/ADC.c ****                 ,(uint8)(ADC_cy_psoc4_sarmux_8__CH_11_PORT << 4u) |
 145:.\Generated_Source\PSoC4/ADC.c ****                  (uint8)ADC_cy_psoc4_sarmux_8__CH_11_PIN
 146:.\Generated_Source\PSoC4/ADC.c ****             #endif /* End ADC_TOTAL_CHANNELS_NUM > 11u */
 147:.\Generated_Source\PSoC4/ADC.c ****             #if(ADC_TOTAL_CHANNELS_NUM > 12u)
 148:.\Generated_Source\PSoC4/ADC.c ****                 ,(uint8)(ADC_cy_psoc4_sarmux_8__CH_12_PORT << 4u) |
 149:.\Generated_Source\PSoC4/ADC.c ****                  (uint8)ADC_cy_psoc4_sarmux_8__CH_12_PIN
 150:.\Generated_Source\PSoC4/ADC.c ****             #endif /* End ADC_TOTAL_CHANNELS_NUM > 12u */
 151:.\Generated_Source\PSoC4/ADC.c ****             #if(ADC_TOTAL_CHANNELS_NUM > 13u)
 152:.\Generated_Source\PSoC4/ADC.c ****                 ,(uint8)(ADC_cy_psoc4_sarmux_8__CH_13_PORT << 4u) |
 153:.\Generated_Source\PSoC4/ADC.c ****                  (uint8)ADC_cy_psoc4_sarmux_8__CH_13_PIN
 154:.\Generated_Source\PSoC4/ADC.c ****             #endif /* End ADC_TOTAL_CHANNELS_NUM > 13u */
 155:.\Generated_Source\PSoC4/ADC.c ****             #if(ADC_TOTAL_CHANNELS_NUM > 14u)
 156:.\Generated_Source\PSoC4/ADC.c ****                 ,(uint8)(ADC_cy_psoc4_sarmux_8__CH_14_PORT << 4u) |
 157:.\Generated_Source\PSoC4/ADC.c ****                  (uint8)ADC_cy_psoc4_sarmux_8__CH_14_PIN
 158:.\Generated_Source\PSoC4/ADC.c ****             #endif /* End ADC_TOTAL_CHANNELS_NUM > 14u */
 159:.\Generated_Source\PSoC4/ADC.c ****             #if(ADC_TOTAL_CHANNELS_NUM > 15u)
 160:.\Generated_Source\PSoC4/ADC.c ****                 ,(uint8)(ADC_cy_psoc4_sarmux_8__CH_15_PORT << 4u) |
 161:.\Generated_Source\PSoC4/ADC.c ****                  (uint8)ADC_cy_psoc4_sarmux_8__CH_15_PIN
 162:.\Generated_Source\PSoC4/ADC.c ****             #endif /* End ADC_TOTAL_CHANNELS_NUM > 15u */
 163:.\Generated_Source\PSoC4/ADC.c ****             #if(ADC_TOTAL_CHANNELS_NUM > 16u)
 164:.\Generated_Source\PSoC4/ADC.c ****                 ,(uint8)(ADC_cy_psoc4_sarmux_8__CH_16_PORT << 4u) |
 165:.\Generated_Source\PSoC4/ADC.c ****                  (uint8)ADC_cy_psoc4_sarmux_8__CH_16_PIN
 166:.\Generated_Source\PSoC4/ADC.c ****             #endif /* End ADC_TOTAL_CHANNELS_NUM > 16u */
 167:.\Generated_Source\PSoC4/ADC.c ****         };
 168:.\Generated_Source\PSoC4/ADC.c ****     #endif /* End ADC_TOTAL_CHANNELS_NUM > 1u */
 169:.\Generated_Source\PSoC4/ADC.c **** 
 170:.\Generated_Source\PSoC4/ADC.c ****     #if(ADC_IRQ_REMOVE == 0u)
 171:.\Generated_Source\PSoC4/ADC.c ****         /* Start and set interrupt vector */
 172:.\Generated_Source\PSoC4/ADC.c ****         CyIntSetPriority(ADC_INTC_NUMBER, ADC_INTC_PRIOR_NUMBER);
  32              		.loc 1 172 0
  33 0002 0E20     		mov	r0, #14
  34 0004 0321     		mov	r1, #3
  35 0006 FFF7FEFF 		bl	CyIntSetPriority
  36              	.LVL0:
 173:.\Generated_Source\PSoC4/ADC.c ****         (void)CyIntSetVector(ADC_INTC_NUMBER, &ADC_ISR);
  37              		.loc 1 173 0
  38 000a 0E20     		mov	r0, #14
  39 000c 2349     		ldr	r1, .L6
  40 000e FFF7FEFF 		bl	CyIntSetVector
  41              	.LVL1:
 174:.\Generated_Source\PSoC4/ADC.c ****     #endif   /* End ADC_IRQ_REMOVE */
 175:.\Generated_Source\PSoC4/ADC.c **** 
 176:.\Generated_Source\PSoC4/ADC.c ****     /* Init SAR and MUX registers */
 177:.\Generated_Source\PSoC4/ADC.c ****     ADC_SAR_CHAN_EN_REG = ADC_DEFAULT_EN_CHANNELS;
  42              		.loc 1 177 0
  43 0012 0122     		mov	r2, #1
  44 0014 224B     		ldr	r3, .L6+4
  45 0016 1A60     		str	r2, [r3]
 178:.\Generated_Source\PSoC4/ADC.c ****     ADC_SAR_CTRL_REG |= ADC_DEFAULT_CTRL_REG_CFG | 
 179:.\Generated_Source\PSoC4/ADC.c ****         /* Enable the SAR internal pump when global pump is enabled */
 180:.\Generated_Source\PSoC4/ADC.c ****         (((ADC_PUMP_CTRL_REG & ADC_PUMP_CTRL_ENABLED) != 0u) ? 
  46              		.loc 1 180 0
  47 0018 224B     		ldr	r3, .L6+8
  48 001a 1B68     		ldr	r3, [r3]
ARM GAS  C:\DOCUME~1\Remixvit\LOCALS~1\Temp\ccVIFrYa.s 			page 5


 178:.\Generated_Source\PSoC4/ADC.c ****     ADC_SAR_CTRL_REG |= ADC_DEFAULT_CTRL_REG_CFG | 
  49              		.loc 1 178 0
  50 001c 002B     		cmp	r3, #0
  51 001e 01DA     		bge	.L5
  52 0020 2149     		ldr	r1, .L6+12
  53 0022 00E0     		b	.L2
  54              	.L5:
  55 0024 2149     		ldr	r1, .L6+16
  56              	.L2:
 178:.\Generated_Source\PSoC4/ADC.c ****     ADC_SAR_CTRL_REG |= ADC_DEFAULT_CTRL_REG_CFG | 
  57              		.loc 1 178 0 is_stmt 0 discriminator 4
  58 0026 224A     		ldr	r2, .L6+20
  59 0028 1368     		ldr	r3, [r2]
  60 002a 0B43     		orr	r3, r1
  61 002c 1360     		str	r3, [r2]
 181:.\Generated_Source\PSoC4/ADC.c ****         ADC_BOOSTPUMP_EN : 0u);
 182:.\Generated_Source\PSoC4/ADC.c ****     ADC_SAR_SAMPLE_CTRL_REG = ADC_DEFAULT_SAMPLE_CTRL_REG_CFG;
  62              		.loc 1 182 0 is_stmt 1 discriminator 4
  63 002e 214A     		ldr	r2, .L6+24
  64 0030 214B     		ldr	r3, .L6+28
  65 0032 1A60     		str	r2, [r3]
 183:.\Generated_Source\PSoC4/ADC.c ****     ADC_SAR_RANGE_THRES_REG = ADC_DEFAULT_RANGE_THRES_REG_CFG;
  66              		.loc 1 183 0 discriminator 4
  67 0034 214A     		ldr	r2, .L6+32
  68 0036 224B     		ldr	r3, .L6+36
  69 0038 1A60     		str	r2, [r3]
 184:.\Generated_Source\PSoC4/ADC.c ****     ADC_SAR_RANGE_COND_REG  = ADC_COMPARE_MODE;
  70              		.loc 1 184 0 discriminator 4
  71 003a 0023     		mov	r3, #0
  72 003c 214A     		ldr	r2, .L6+40
  73 003e 1360     		str	r3, [r2]
 185:.\Generated_Source\PSoC4/ADC.c ****     ADC_SAR_SAMPLE_TIME01_REG = ADC_DEFAULT_SAMPLE_TIME01_REG_CFG;
  74              		.loc 1 185 0 discriminator 4
  75 0040 214A     		ldr	r2, .L6+44
  76 0042 2249     		ldr	r1, .L6+48
  77 0044 0A60     		str	r2, [r1]
 186:.\Generated_Source\PSoC4/ADC.c ****     ADC_SAR_SAMPLE_TIME23_REG = ADC_DEFAULT_SAMPLE_TIME23_REG_CFG;
  78              		.loc 1 186 0 discriminator 4
  79 0046 2249     		ldr	r1, .L6+52
  80 0048 0A60     		str	r2, [r1]
 187:.\Generated_Source\PSoC4/ADC.c ****     
 188:.\Generated_Source\PSoC4/ADC.c ****     /* Connect Vm to VSSA when even one channel is single-ended or multiple channels configured */
 189:.\Generated_Source\PSoC4/ADC.c ****     #if(ADC_DEFAULT_MUX_SWITCH0 != 0u)
 190:.\Generated_Source\PSoC4/ADC.c ****         ADC_MUX_SWITCH0_REG |= ADC_DEFAULT_MUX_SWITCH0;
  81              		.loc 1 190 0 discriminator 4
  82 004a 2249     		ldr	r1, .L6+56
  83 004c 0A68     		ldr	r2, [r1]
  84 004e 8020     		mov	r0, #128
  85 0050 4002     		lsl	r0, r0, #9
  86 0052 0243     		orr	r2, r0
  87 0054 0A60     		str	r2, [r1]
 191:.\Generated_Source\PSoC4/ADC.c ****         /* Set MUX_HW_CTRL_VSSA in MUX_SWITCH_HW_CTRL when multiple channels enabled */
 192:.\Generated_Source\PSoC4/ADC.c ****         #if(ADC_TOTAL_CHANNELS_NUM > 1u)
 193:.\Generated_Source\PSoC4/ADC.c ****             ADC_MUX_SWITCH_HW_CTRL_REG |= ADC_DEFAULT_MUX_SWITCH0;
 194:.\Generated_Source\PSoC4/ADC.c ****         #endif /* ADC_TOTAL_CHANNELS_NUM > 1u */
 195:.\Generated_Source\PSoC4/ADC.c ****     #endif /*ADC_CHANNELS_MODE !=0 */
 196:.\Generated_Source\PSoC4/ADC.c **** 
ARM GAS  C:\DOCUME~1\Remixvit\LOCALS~1\Temp\ccVIFrYa.s 			page 6


 197:.\Generated_Source\PSoC4/ADC.c ****     ADC_SAR_SATURATE_INTR_MASK_REG = 0u;
  88              		.loc 1 197 0 discriminator 4
  89 0056 204A     		ldr	r2, .L6+60
  90 0058 1360     		str	r3, [r2]
 198:.\Generated_Source\PSoC4/ADC.c ****     ADC_SAR_RANGE_INTR_MASK_REG = 0u;
  91              		.loc 1 198 0 discriminator 4
  92 005a 204A     		ldr	r2, .L6+64
  93 005c 1360     		str	r3, [r2]
 199:.\Generated_Source\PSoC4/ADC.c ****     ADC_SAR_INTR_MASK_REG = ADC_SAR_INTR_MASK;
  94              		.loc 1 199 0 discriminator 4
  95 005e 0133     		add	r3, r3, #1
  96 0060 1F4A     		ldr	r2, .L6+68
  97 0062 1360     		str	r3, [r2]
 200:.\Generated_Source\PSoC4/ADC.c **** 
 201:.\Generated_Source\PSoC4/ADC.c ****     #if(ADC_CY_SAR_IP_VER == ADC_CY_SAR_IP_VER0)
 202:.\Generated_Source\PSoC4/ADC.c ****         ADC_ANA_TRIM_REG = ADC_TRIM_COEF;
  98              		.loc 1 202 0 discriminator 4
  99 0064 0221     		mov	r1, #2
 100 0066 1F4A     		ldr	r2, .L6+72
 101 0068 1160     		str	r1, [r2]
 203:.\Generated_Source\PSoC4/ADC.c ****     #endif /* (ADC_CY_SAR_IP_VER == ADC_CY_SAR_IP_VER0) */
 204:.\Generated_Source\PSoC4/ADC.c **** 
 205:.\Generated_Source\PSoC4/ADC.c ****     /* Read and modify default configuration based on characterization */
 206:.\Generated_Source\PSoC4/ADC.c ****     tmpRegVal = ADC_SAR_DFT_CTRL_REG;
 102              		.loc 1 206 0 discriminator 4
 103 006a 1F49     		ldr	r1, .L6+76
 104 006c 0868     		ldr	r0, [r1]
 105              	.LVL2:
 207:.\Generated_Source\PSoC4/ADC.c ****     tmpRegVal &= (uint32)~ADC_DCEN;
 106              		.loc 1 207 0 discriminator 4
 107 006e 1F4A     		ldr	r2, .L6+80
 108 0070 0240     		and	r2, r0
 109              	.LVL3:
 208:.\Generated_Source\PSoC4/ADC.c ****     
 209:.\Generated_Source\PSoC4/ADC.c ****     #if(ADC_CY_SAR_IP_VER == ADC_CY_SAR_IP_VER0)
 210:.\Generated_Source\PSoC4/ADC.c ****         #if(ADC_NOMINAL_CLOCK_FREQ > (ADC_MAX_FREQUENCY / 2))
 211:.\Generated_Source\PSoC4/ADC.c ****             tmpRegVal |= ADC_SEL_CSEL_DFT_CHAR;
 212:.\Generated_Source\PSoC4/ADC.c ****         #else  /* clock speed < 9 Mhz */
 213:.\Generated_Source\PSoC4/ADC.c ****             tmpRegVal |= ADC_DLY_INC;
 110              		.loc 1 213 0 discriminator 4
 111 0072 1343     		orr	r3, r2
 112              	.LVL4:
 214:.\Generated_Source\PSoC4/ADC.c ****         #endif /* clock speed > 9 Mhz */
 215:.\Generated_Source\PSoC4/ADC.c ****     #else
 216:.\Generated_Source\PSoC4/ADC.c ****         #if ((ADC_DEFAULT_VREF_SEL == ADC__INTERNAL1024) || \
 217:.\Generated_Source\PSoC4/ADC.c ****              (ADC_DEFAULT_VREF_SEL == ADC__INTERNALVREF))
 218:.\Generated_Source\PSoC4/ADC.c ****             tmpRegVal |= ADC_DLY_INC;
 219:.\Generated_Source\PSoC4/ADC.c ****         #else
 220:.\Generated_Source\PSoC4/ADC.c ****             tmpRegVal |= ADC_DCEN;
 221:.\Generated_Source\PSoC4/ADC.c ****             tmpRegVal &= (uint32)~ADC_DLY_INC;
 222:.\Generated_Source\PSoC4/ADC.c ****         #endif /* ((ADC_DEFAULT_VREF_SEL == ADC__INTERNAL1024) || \
 223:.\Generated_Source\PSoC4/ADC.c ****                    (ADC_DEFAULT_VREF_SEL == ADC__INTERNALVREF)) */
 224:.\Generated_Source\PSoC4/ADC.c ****     #endif /* (ADC_CY_SAR_IP_VER == ADC_CY_SAR_IP_VER0) */
 225:.\Generated_Source\PSoC4/ADC.c ****     
 226:.\Generated_Source\PSoC4/ADC.c ****     ADC_SAR_DFT_CTRL_REG = tmpRegVal;
 113              		.loc 1 226 0 discriminator 4
 114 0074 0B60     		str	r3, [r1]
ARM GAS  C:\DOCUME~1\Remixvit\LOCALS~1\Temp\ccVIFrYa.s 			page 7


 115              	.LVL5:
 227:.\Generated_Source\PSoC4/ADC.c **** 
 228:.\Generated_Source\PSoC4/ADC.c ****     #if(ADC_MAX_RESOLUTION != ADC_RESOLUTION_12)
 229:.\Generated_Source\PSoC4/ADC.c ****         ADC_WOUNDING_REG = ADC_ALT_WOUNDING;
 230:.\Generated_Source\PSoC4/ADC.c ****     #endif /* ADC_MAX_RESOLUTION != ADC_RESOLUTION_12 */
 231:.\Generated_Source\PSoC4/ADC.c **** 
 232:.\Generated_Source\PSoC4/ADC.c ****     for(chNum = 0u; chNum < ADC_TOTAL_CHANNELS_NUM; chNum++)
 116              		.loc 1 232 0 discriminator 4
 117 0076 0023     		mov	r3, #0
 118              	.LVL6:
 119 0078 0DE0     		b	.L3
 120              	.LVL7:
 121              	.L4:
 233:.\Generated_Source\PSoC4/ADC.c ****     {
 234:.\Generated_Source\PSoC4/ADC.c ****         tmpRegVal = (ADC_channelsConfig[chNum] & ADC_CHANNEL_CONFIG_MASK);
 235:.\Generated_Source\PSoC4/ADC.c ****         #if(ADC_TOTAL_CHANNELS_NUM > 1u)
 236:.\Generated_Source\PSoC4/ADC.c ****             tmpRegVal |= ADC_InputsPlacement[chNum];
 237:.\Generated_Source\PSoC4/ADC.c ****         #endif /* End ADC_TOTAL_CHANNELS_NUM > 1u */
 238:.\Generated_Source\PSoC4/ADC.c ****         
 239:.\Generated_Source\PSoC4/ADC.c ****         
 240:.\Generated_Source\PSoC4/ADC.c ****         /* When the part is limited to 10-bit then the SUB_RESOLUTION bit
 241:.\Generated_Source\PSoC4/ADC.c ****         *  will be ignored and the RESOLUTION bit selects between 10-bit
 242:.\Generated_Source\PSoC4/ADC.c ****         *  (0) and 8-bit (1) resolution.
 243:.\Generated_Source\PSoC4/ADC.c ****         */
 244:.\Generated_Source\PSoC4/ADC.c ****         #if((ADC_MAX_RESOLUTION != ADC_RESOLUTION_12) && \
 245:.\Generated_Source\PSoC4/ADC.c ****             (ADC_ALT_WOUNDING == ADC_WOUNDING_10BIT))
 246:.\Generated_Source\PSoC4/ADC.c ****             tmpRegVal &= (uint32)(~ADC_ALT_RESOLUTION_ON);
 247:.\Generated_Source\PSoC4/ADC.c ****         #endif /* ADC_MAX_RESOLUTION != ADC_RESOLUTION_12 */
 248:.\Generated_Source\PSoC4/ADC.c **** 
 249:.\Generated_Source\PSoC4/ADC.c ****         #if(ADC_INJ_CHANNEL_ENABLED)
 250:.\Generated_Source\PSoC4/ADC.c ****         if(chNum < ADC_SEQUENCED_CHANNELS_NUM)
 251:.\Generated_Source\PSoC4/ADC.c ****         #endif /* ADC_INJ_CHANNEL_ENABLED */
 252:.\Generated_Source\PSoC4/ADC.c ****         {
 253:.\Generated_Source\PSoC4/ADC.c ****             CY_SET_REG32((reg32 *)(ADC_SAR_CHAN_CONFIG_IND + (uint32)(chNum << 2)), tmpRegVal);
 122              		.loc 1 253 0
 123 007a 9A00     		lsl	r2, r3, #2
 124 007c 1C49     		ldr	r1, .L6+84
 125 007e 8C46     		mov	ip, r1
 126 0080 6244     		add	r2, r2, ip
 127 0082 0021     		mov	r1, #0
 128 0084 1160     		str	r1, [r2]
 129              	.LVL8:
 254:.\Generated_Source\PSoC4/ADC.c **** 
 255:.\Generated_Source\PSoC4/ADC.c ****             if((ADC_channelsConfig[chNum] & ADC_IS_SATURATE_EN_MASK) != 0u)
 256:.\Generated_Source\PSoC4/ADC.c ****             {
 257:.\Generated_Source\PSoC4/ADC.c ****                 ADC_SAR_SATURATE_INTR_MASK_REG |= (uint16)((uint16)1 << chNum);
 258:.\Generated_Source\PSoC4/ADC.c ****             }
 259:.\Generated_Source\PSoC4/ADC.c **** 
 260:.\Generated_Source\PSoC4/ADC.c ****             if((ADC_channelsConfig[chNum] & ADC_IS_RANGE_CTRL_EN_MASK) != 0u)
 261:.\Generated_Source\PSoC4/ADC.c ****             {
 262:.\Generated_Source\PSoC4/ADC.c ****                 ADC_SAR_RANGE_INTR_MASK_REG |= (uint16)((uint16)1 << chNum);
 263:.\Generated_Source\PSoC4/ADC.c ****             }
 264:.\Generated_Source\PSoC4/ADC.c ****         }
 265:.\Generated_Source\PSoC4/ADC.c ****         #if(ADC_INJ_CHANNEL_ENABLED)
 266:.\Generated_Source\PSoC4/ADC.c ****             else
 267:.\Generated_Source\PSoC4/ADC.c ****             {
 268:.\Generated_Source\PSoC4/ADC.c ****                 CY_SET_REG32(ADC_SAR_INJ_CHAN_CONFIG_PTR, tmpRegVal | ADC_INJ_TAILGATING);
ARM GAS  C:\DOCUME~1\Remixvit\LOCALS~1\Temp\ccVIFrYa.s 			page 8


 269:.\Generated_Source\PSoC4/ADC.c **** 
 270:.\Generated_Source\PSoC4/ADC.c ****                 if((ADC_channelsConfig[chNum] & ADC_IS_SATURATE_EN_MASK) != 0u)
 271:.\Generated_Source\PSoC4/ADC.c ****                 {
 272:.\Generated_Source\PSoC4/ADC.c ****                     ADC_SAR_INTR_MASK_REG |= ADC_INJ_SATURATE_MASK;
 273:.\Generated_Source\PSoC4/ADC.c ****                 }
 274:.\Generated_Source\PSoC4/ADC.c **** 
 275:.\Generated_Source\PSoC4/ADC.c ****                 if((ADC_channelsConfig[chNum] & ADC_IS_RANGE_CTRL_EN_MASK) != 0u)
 276:.\Generated_Source\PSoC4/ADC.c ****                 {
 277:.\Generated_Source\PSoC4/ADC.c ****                     ADC_SAR_INTR_MASK_REG |= ADC_INJ_RANGE_MASK;
 278:.\Generated_Source\PSoC4/ADC.c ****                 }
 279:.\Generated_Source\PSoC4/ADC.c ****             }
 280:.\Generated_Source\PSoC4/ADC.c ****         #endif /* ADC_INJ_CHANNEL_ENABLED */
 281:.\Generated_Source\PSoC4/ADC.c **** 
 282:.\Generated_Source\PSoC4/ADC.c ****         if((ADC_channelsConfig[chNum] & ADC_ALT_RESOLUTION_ON) != 0u)
 283:.\Generated_Source\PSoC4/ADC.c ****         {
 284:.\Generated_Source\PSoC4/ADC.c ****                counts = (int32)ADC_DEFAULT_MAX_WRK_ALT;
 285:.\Generated_Source\PSoC4/ADC.c ****         }
 286:.\Generated_Source\PSoC4/ADC.c ****         else
 287:.\Generated_Source\PSoC4/ADC.c ****         {
 288:.\Generated_Source\PSoC4/ADC.c ****                counts = (int32)ADC_SAR_WRK_MAX_12BIT;
 289:.\Generated_Source\PSoC4/ADC.c ****         }
 290:.\Generated_Source\PSoC4/ADC.c **** 
 291:.\Generated_Source\PSoC4/ADC.c ****         if((ADC_channelsConfig[chNum] & ADC_DIFFERENTIAL_EN) == 0u)
 292:.\Generated_Source\PSoC4/ADC.c ****         {
 293:.\Generated_Source\PSoC4/ADC.c ****             #if((ADC_DEFAULT_SE_RESULT_FORMAT_SEL == ADC__FSIGNED) && \
 294:.\Generated_Source\PSoC4/ADC.c ****                 (ADC_DEFAULT_NEG_INPUT_SEL == ADC__VREF))
 295:.\Generated_Source\PSoC4/ADC.c ****                 /* Set offset to the minus half scale to convert results to unsigned format */
 296:.\Generated_Source\PSoC4/ADC.c ****                 ADC_offset[chNum] = (int16)(counts / -2);
 297:.\Generated_Source\PSoC4/ADC.c ****             #else
 298:.\Generated_Source\PSoC4/ADC.c ****                 ADC_offset[chNum] = 0;
 130              		.loc 1 298 0
 131 0086 5800     		lsl	r0, r3, #1
 132 0088 1A4A     		ldr	r2, .L6+88
 133 008a 8152     		strh	r1, [r0, r2]
 299:.\Generated_Source\PSoC4/ADC.c ****             #endif /* end DEFAULT_SE_RESULT_FORMAT_SEL == ADC__FSIGNED */
 300:.\Generated_Source\PSoC4/ADC.c ****         }
 301:.\Generated_Source\PSoC4/ADC.c ****         else    /* Differential channel */
 302:.\Generated_Source\PSoC4/ADC.c ****         {
 303:.\Generated_Source\PSoC4/ADC.c ****             #if(ADC_DEFAULT_DIFF_RESULT_FORMAT_SEL == ADC__FUNSIGNED)
 304:.\Generated_Source\PSoC4/ADC.c ****                 /* Set offset to the half scale to convert results to signed format */
 305:.\Generated_Source\PSoC4/ADC.c ****                 ADC_offset[chNum] = (int16)(counts / 2);
 306:.\Generated_Source\PSoC4/ADC.c ****             #else
 307:.\Generated_Source\PSoC4/ADC.c ****                 ADC_offset[chNum] = 0;
 308:.\Generated_Source\PSoC4/ADC.c ****             #endif /* end ADC_DEFAULT_DIFF_RESULT_FORMAT_SEL == ADC__FUNSIGNED */
 309:.\Generated_Source\PSoC4/ADC.c ****         }
 310:.\Generated_Source\PSoC4/ADC.c ****         /* Calculate gain in counts per 10 volts with rounding */
 311:.\Generated_Source\PSoC4/ADC.c ****         ADC_countsPer10Volt[chNum] = (int16)(((counts * ADC_10MV_COUNTS) +
 134              		.loc 1 311 0
 135 008c 9900     		lsl	r1, r3, #2
 136 008e 1A48     		ldr	r0, .L6+92
 137 0090 1A4A     		ldr	r2, .L6+96
 138 0092 8850     		str	r0, [r1, r2]
 232:.\Generated_Source\PSoC4/ADC.c ****     {
 139              		.loc 1 232 0
 140 0094 0133     		add	r3, r3, #1
 141              	.LVL9:
 142              	.L3:
ARM GAS  C:\DOCUME~1\Remixvit\LOCALS~1\Temp\ccVIFrYa.s 			page 9


 232:.\Generated_Source\PSoC4/ADC.c ****     {
 143              		.loc 1 232 0 is_stmt 0 discriminator 1
 144 0096 002B     		cmp	r3, #0
 145 0098 EFD0     		beq	.L4
 312:.\Generated_Source\PSoC4/ADC.c ****                             ADC_DEFAULT_VREF_MV_VALUE) / (ADC_DEFAULT_VREF_MV_VALUE * 2));
 313:.\Generated_Source\PSoC4/ADC.c ****     }
 314:.\Generated_Source\PSoC4/ADC.c **** }
 146              		.loc 1 314 0 is_stmt 1
 147              		@ sp needed
 148 009a 08BD     		pop	{r3, pc}
 149              	.L7:
 150              		.align	2
 151              	.L6:
 152 009c 00000000 		.word	ADC_ISR
 153 00a0 20001A40 		.word	1075445792
 154 00a4 80031A40 		.word	1075446656
 155 00a8 70021051 		.word	1360003696
 156 00ac 70020051 		.word	1358955120
 157 00b0 00001A40 		.word	1075445760
 158 00b4 8C000080 		.word	-2147483508
 159 00b8 04001A40 		.word	1075445764
 160 00bc 0000FF07 		.word	134152192
 161 00c0 18001A40 		.word	1075445784
 162 00c4 1C001A40 		.word	1075445788
 163 00c8 02000200 		.word	131074
 164 00cc 10001A40 		.word	1075445776
 165 00d0 14001A40 		.word	1075445780
 166 00d4 00031A40 		.word	1075446528
 167 00d8 28021A40 		.word	1075446312
 168 00dc 38021A40 		.word	1075446328
 169 00e0 18021A40 		.word	1075446296
 170 00e4 000F1A40 		.word	1075449600
 171 00e8 30001A40 		.word	1075445808
 172 00ec FFFFFFDF 		.word	-536870913
 173 00f0 80001A40 		.word	1075445888
 174 00f4 00000000 		.word	ADC_offset
 175 00f8 3E180000 		.word	6206
 176 00fc 00000000 		.word	ADC_countsPer10Volt
 177              		.cfi_endproc
 178              	.LFE1:
 179              		.size	ADC_Init, .-ADC_Init
 180              		.section	.text.ADC_Enable,"ax",%progbits
 181              		.align	2
 182              		.global	ADC_Enable
 183              		.code	16
 184              		.thumb_func
 185              		.type	ADC_Enable, %function
 186              	ADC_Enable:
 187              	.LFB2:
 315:.\Generated_Source\PSoC4/ADC.c **** 
 316:.\Generated_Source\PSoC4/ADC.c **** /*******************************************************************************
 317:.\Generated_Source\PSoC4/ADC.c **** * Function Name: ADC_SAR_1_Enable
 318:.\Generated_Source\PSoC4/ADC.c **** ********************************************************************************
 319:.\Generated_Source\PSoC4/ADC.c **** *
 320:.\Generated_Source\PSoC4/ADC.c **** * Summary:
 321:.\Generated_Source\PSoC4/ADC.c **** *  Enables the clock and analog power for SAR ADC.
 322:.\Generated_Source\PSoC4/ADC.c **** *
ARM GAS  C:\DOCUME~1\Remixvit\LOCALS~1\Temp\ccVIFrYa.s 			page 10


 323:.\Generated_Source\PSoC4/ADC.c **** * Parameters:
 324:.\Generated_Source\PSoC4/ADC.c **** *  None.
 325:.\Generated_Source\PSoC4/ADC.c **** *
 326:.\Generated_Source\PSoC4/ADC.c **** * Return:
 327:.\Generated_Source\PSoC4/ADC.c **** *  None.
 328:.\Generated_Source\PSoC4/ADC.c **** *
 329:.\Generated_Source\PSoC4/ADC.c **** *******************************************************************************/
 330:.\Generated_Source\PSoC4/ADC.c **** void ADC_Enable(void)
 331:.\Generated_Source\PSoC4/ADC.c **** {
 188              		.loc 1 331 0
 189              		.cfi_startproc
 190 0000 08B5     		push	{r3, lr}
 191              		.cfi_def_cfa_offset 8
 192              		.cfi_offset 3, -8
 193              		.cfi_offset 14, -4
 332:.\Generated_Source\PSoC4/ADC.c ****     if (0u == (ADC_SAR_CTRL_REG & ADC_ENABLE))
 194              		.loc 1 332 0
 195 0002 074B     		ldr	r3, .L10
 196 0004 1B68     		ldr	r3, [r3]
 197 0006 002B     		cmp	r3, #0
 198 0008 08DB     		blt	.L8
 333:.\Generated_Source\PSoC4/ADC.c ****     {
 334:.\Generated_Source\PSoC4/ADC.c ****         #if(ADC_CY_SAR_IP_VER != ADC_CY_SAR_IP_VER0)
 335:.\Generated_Source\PSoC4/ADC.c **** 
 336:.\Generated_Source\PSoC4/ADC.c ****             while (0u != (ADC_SAR_STATUS_REG & ADC_STATUS_BUSY))
 337:.\Generated_Source\PSoC4/ADC.c ****             {
 338:.\Generated_Source\PSoC4/ADC.c ****                 /* wait for SAR to go idle to avoid deadlock */
 339:.\Generated_Source\PSoC4/ADC.c ****             }
 340:.\Generated_Source\PSoC4/ADC.c ****         #endif /* (ADC_CY_SAR_IP_VER != ADC_CY_SAR_IP_VER0) */
 341:.\Generated_Source\PSoC4/ADC.c ****         
 342:.\Generated_Source\PSoC4/ADC.c ****         ADC_SAR_CTRL_REG |= ADC_ENABLE;
 199              		.loc 1 342 0
 200 000a 054A     		ldr	r2, .L10
 201 000c 1368     		ldr	r3, [r2]
 202 000e 8021     		mov	r1, #128
 203 0010 0906     		lsl	r1, r1, #24
 204 0012 0B43     		orr	r3, r1
 205 0014 1360     		str	r3, [r2]
 343:.\Generated_Source\PSoC4/ADC.c ****         
 344:.\Generated_Source\PSoC4/ADC.c ****         /* The block is ready to use 10 us after the enable signal is set high. */
 345:.\Generated_Source\PSoC4/ADC.c ****         CyDelayUs(ADC_10US_DELAY);         
 206              		.loc 1 345 0
 207 0016 0A20     		mov	r0, #10
 208 0018 FFF7FEFF 		bl	CyDelayUs
 209              	.LVL10:
 210              	.L8:
 346:.\Generated_Source\PSoC4/ADC.c ****     }
 347:.\Generated_Source\PSoC4/ADC.c **** }
 211              		.loc 1 347 0
 212              		@ sp needed
 213 001c 08BD     		pop	{r3, pc}
 214              	.L11:
 215 001e C046     		.align	2
 216              	.L10:
 217 0020 00001A40 		.word	1075445760
 218              		.cfi_endproc
 219              	.LFE2:
ARM GAS  C:\DOCUME~1\Remixvit\LOCALS~1\Temp\ccVIFrYa.s 			page 11


 220              		.size	ADC_Enable, .-ADC_Enable
 221              		.section	.text.ADC_Start,"ax",%progbits
 222              		.align	2
 223              		.global	ADC_Start
 224              		.code	16
 225              		.thumb_func
 226              		.type	ADC_Start, %function
 227              	ADC_Start:
 228              	.LFB0:
  64:.\Generated_Source\PSoC4/ADC.c ****     /* If not Initialized then initialize all required hardware and software */
 229              		.loc 1 64 0
 230              		.cfi_startproc
 231 0000 08B5     		push	{r3, lr}
 232              		.cfi_def_cfa_offset 8
 233              		.cfi_offset 3, -8
 234              		.cfi_offset 14, -4
  66:.\Generated_Source\PSoC4/ADC.c ****     {
 235              		.loc 1 66 0
 236 0002 064B     		ldr	r3, .L14
 237 0004 1B78     		ldrb	r3, [r3]
 238 0006 002B     		cmp	r3, #0
 239 0008 04D1     		bne	.L13
  68:.\Generated_Source\PSoC4/ADC.c ****         ADC_initVar = 1u;
 240              		.loc 1 68 0
 241 000a FFF7FEFF 		bl	ADC_Init
 242              	.LVL11:
  69:.\Generated_Source\PSoC4/ADC.c ****     }
 243              		.loc 1 69 0
 244 000e 0122     		mov	r2, #1
 245 0010 024B     		ldr	r3, .L14
 246 0012 1A70     		strb	r2, [r3]
 247              	.L13:
  71:.\Generated_Source\PSoC4/ADC.c **** }
 248              		.loc 1 71 0
 249 0014 FFF7FEFF 		bl	ADC_Enable
 250              	.LVL12:
  72:.\Generated_Source\PSoC4/ADC.c **** 
 251              		.loc 1 72 0
 252              		@ sp needed
 253 0018 08BD     		pop	{r3, pc}
 254              	.L15:
 255 001a C046     		.align	2
 256              	.L14:
 257 001c 00000000 		.word	.LANCHOR0
 258              		.cfi_endproc
 259              	.LFE0:
 260              		.size	ADC_Start, .-ADC_Start
 261              		.section	.text.ADC_Stop,"ax",%progbits
 262              		.align	2
 263              		.global	ADC_Stop
 264              		.code	16
 265              		.thumb_func
 266              		.type	ADC_Stop, %function
 267              	ADC_Stop:
 268              	.LFB3:
 348:.\Generated_Source\PSoC4/ADC.c **** 
 349:.\Generated_Source\PSoC4/ADC.c **** 
ARM GAS  C:\DOCUME~1\Remixvit\LOCALS~1\Temp\ccVIFrYa.s 			page 12


 350:.\Generated_Source\PSoC4/ADC.c **** /*******************************************************************************
 351:.\Generated_Source\PSoC4/ADC.c **** * Function Name: ADC_Stop
 352:.\Generated_Source\PSoC4/ADC.c **** ********************************************************************************
 353:.\Generated_Source\PSoC4/ADC.c **** *
 354:.\Generated_Source\PSoC4/ADC.c **** * Summary:
 355:.\Generated_Source\PSoC4/ADC.c **** *  This function stops ADC conversions and puts the ADC into its lowest power
 356:.\Generated_Source\PSoC4/ADC.c **** *  mode.
 357:.\Generated_Source\PSoC4/ADC.c **** *
 358:.\Generated_Source\PSoC4/ADC.c **** * Parameters:
 359:.\Generated_Source\PSoC4/ADC.c **** *  None.
 360:.\Generated_Source\PSoC4/ADC.c **** *
 361:.\Generated_Source\PSoC4/ADC.c **** * Return:
 362:.\Generated_Source\PSoC4/ADC.c **** *  None.
 363:.\Generated_Source\PSoC4/ADC.c **** *
 364:.\Generated_Source\PSoC4/ADC.c **** *******************************************************************************/
 365:.\Generated_Source\PSoC4/ADC.c **** void ADC_Stop(void)
 366:.\Generated_Source\PSoC4/ADC.c **** {
 269              		.loc 1 366 0
 270              		.cfi_startproc
 367:.\Generated_Source\PSoC4/ADC.c ****     ADC_SAR_CTRL_REG &= (uint32)~ADC_ENABLE;
 271              		.loc 1 367 0
 272 0000 024A     		ldr	r2, .L17
 273 0002 1368     		ldr	r3, [r2]
 274 0004 5B00     		lsl	r3, r3, #1
 275 0006 5B08     		lsr	r3, r3, #1
 276 0008 1360     		str	r3, [r2]
 368:.\Generated_Source\PSoC4/ADC.c **** }
 277              		.loc 1 368 0
 278              		@ sp needed
 279 000a 7047     		bx	lr
 280              	.L18:
 281              		.align	2
 282              	.L17:
 283 000c 00001A40 		.word	1075445760
 284              		.cfi_endproc
 285              	.LFE3:
 286              		.size	ADC_Stop, .-ADC_Stop
 287              		.section	.text.ADC_StartConvert,"ax",%progbits
 288              		.align	2
 289              		.global	ADC_StartConvert
 290              		.code	16
 291              		.thumb_func
 292              		.type	ADC_StartConvert, %function
 293              	ADC_StartConvert:
 294              	.LFB4:
 369:.\Generated_Source\PSoC4/ADC.c **** 
 370:.\Generated_Source\PSoC4/ADC.c **** 
 371:.\Generated_Source\PSoC4/ADC.c **** /*******************************************************************************
 372:.\Generated_Source\PSoC4/ADC.c **** * Function Name: ADC_StartConvert
 373:.\Generated_Source\PSoC4/ADC.c **** ********************************************************************************
 374:.\Generated_Source\PSoC4/ADC.c **** *
 375:.\Generated_Source\PSoC4/ADC.c **** * Summary:
 376:.\Generated_Source\PSoC4/ADC.c **** *  Description:
 377:.\Generated_Source\PSoC4/ADC.c **** *  For free running mode, this API starts the conversion process and it
 378:.\Generated_Source\PSoC4/ADC.c **** *  runs continuously.
 379:.\Generated_Source\PSoC4/ADC.c **** *
 380:.\Generated_Source\PSoC4/ADC.c **** *  In a triggered mode, this routine triggers every conversion by
ARM GAS  C:\DOCUME~1\Remixvit\LOCALS~1\Temp\ccVIFrYa.s 			page 13


 381:.\Generated_Source\PSoC4/ADC.c **** *  writing into the FW_TRIGGER bit in SAR_START_CTRL reg. In triggered mode,
 382:.\Generated_Source\PSoC4/ADC.c **** *  every conversion has to start by this API.
 383:.\Generated_Source\PSoC4/ADC.c **** *
 384:.\Generated_Source\PSoC4/ADC.c **** * Parameters:
 385:.\Generated_Source\PSoC4/ADC.c **** *  None.
 386:.\Generated_Source\PSoC4/ADC.c **** *
 387:.\Generated_Source\PSoC4/ADC.c **** * Return:
 388:.\Generated_Source\PSoC4/ADC.c **** *  None.
 389:.\Generated_Source\PSoC4/ADC.c **** *
 390:.\Generated_Source\PSoC4/ADC.c **** *******************************************************************************/
 391:.\Generated_Source\PSoC4/ADC.c **** void ADC_StartConvert(void)
 392:.\Generated_Source\PSoC4/ADC.c **** {
 295              		.loc 1 392 0
 296              		.cfi_startproc
 393:.\Generated_Source\PSoC4/ADC.c ****     #if(ADC_DEFAULT_SAMPLE_MODE_SEL == ADC__FREERUNNING)
 394:.\Generated_Source\PSoC4/ADC.c ****         ADC_SAR_SAMPLE_CTRL_REG |= ADC_CONTINUOUS_EN;
 297              		.loc 1 394 0
 298 0000 034A     		ldr	r2, .L20
 299 0002 1368     		ldr	r3, [r2]
 300 0004 8021     		mov	r1, #128
 301 0006 4902     		lsl	r1, r1, #9
 302 0008 0B43     		orr	r3, r1
 303 000a 1360     		str	r3, [r2]
 395:.\Generated_Source\PSoC4/ADC.c ****     #else /* Firmware trigger */
 396:.\Generated_Source\PSoC4/ADC.c ****         ADC_SAR_START_CTRL_REG = ADC_FW_TRIGGER;
 397:.\Generated_Source\PSoC4/ADC.c ****     #endif /* End ADC_DEFAULT_SAMPLE_MODE == ADC__FREERUNNING */
 398:.\Generated_Source\PSoC4/ADC.c **** 
 399:.\Generated_Source\PSoC4/ADC.c **** }
 304              		.loc 1 399 0
 305              		@ sp needed
 306 000c 7047     		bx	lr
 307              	.L21:
 308 000e C046     		.align	2
 309              	.L20:
 310 0010 04001A40 		.word	1075445764
 311              		.cfi_endproc
 312              	.LFE4:
 313              		.size	ADC_StartConvert, .-ADC_StartConvert
 314              		.section	.text.ADC_StopConvert,"ax",%progbits
 315              		.align	2
 316              		.global	ADC_StopConvert
 317              		.code	16
 318              		.thumb_func
 319              		.type	ADC_StopConvert, %function
 320              	ADC_StopConvert:
 321              	.LFB5:
 400:.\Generated_Source\PSoC4/ADC.c **** 
 401:.\Generated_Source\PSoC4/ADC.c **** 
 402:.\Generated_Source\PSoC4/ADC.c **** /*******************************************************************************
 403:.\Generated_Source\PSoC4/ADC.c **** * Function Name: ADC_StopConvert
 404:.\Generated_Source\PSoC4/ADC.c **** ********************************************************************************
 405:.\Generated_Source\PSoC4/ADC.c **** *
 406:.\Generated_Source\PSoC4/ADC.c **** * Summary:
 407:.\Generated_Source\PSoC4/ADC.c **** *  Forces the ADC to stop all conversions.
 408:.\Generated_Source\PSoC4/ADC.c **** *
 409:.\Generated_Source\PSoC4/ADC.c **** * Parameters:
 410:.\Generated_Source\PSoC4/ADC.c **** *  None.
ARM GAS  C:\DOCUME~1\Remixvit\LOCALS~1\Temp\ccVIFrYa.s 			page 14


 411:.\Generated_Source\PSoC4/ADC.c **** *
 412:.\Generated_Source\PSoC4/ADC.c **** * Return:
 413:.\Generated_Source\PSoC4/ADC.c **** *  None.
 414:.\Generated_Source\PSoC4/ADC.c **** *
 415:.\Generated_Source\PSoC4/ADC.c **** *******************************************************************************/
 416:.\Generated_Source\PSoC4/ADC.c **** void ADC_StopConvert(void)
 417:.\Generated_Source\PSoC4/ADC.c **** {
 322              		.loc 1 417 0
 323              		.cfi_startproc
 418:.\Generated_Source\PSoC4/ADC.c ****     #if(ADC_DEFAULT_SAMPLE_MODE_SEL == ADC__FREERUNNING)
 419:.\Generated_Source\PSoC4/ADC.c ****         ADC_SAR_SAMPLE_CTRL_REG &= (uint32)(~ADC_CONTINUOUS_EN);
 324              		.loc 1 419 0
 325 0000 024A     		ldr	r2, .L23
 326 0002 1168     		ldr	r1, [r2]
 327 0004 024B     		ldr	r3, .L23+4
 328 0006 0B40     		and	r3, r1
 329 0008 1360     		str	r3, [r2]
 420:.\Generated_Source\PSoC4/ADC.c ****     #endif /* ADC_DEFAULT_SAMPLE_MODE == ADC__FREERUNNING */
 421:.\Generated_Source\PSoC4/ADC.c **** }
 330              		.loc 1 421 0
 331              		@ sp needed
 332 000a 7047     		bx	lr
 333              	.L24:
 334              		.align	2
 335              	.L23:
 336 000c 04001A40 		.word	1075445764
 337 0010 FFFFFEFF 		.word	-65537
 338              		.cfi_endproc
 339              	.LFE5:
 340              		.size	ADC_StopConvert, .-ADC_StopConvert
 341              		.section	.text.ADC_IsEndConversion,"ax",%progbits
 342              		.align	2
 343              		.global	ADC_IsEndConversion
 344              		.code	16
 345              		.thumb_func
 346              		.type	ADC_IsEndConversion, %function
 347              	ADC_IsEndConversion:
 348              	.LFB6:
 422:.\Generated_Source\PSoC4/ADC.c **** 
 423:.\Generated_Source\PSoC4/ADC.c **** 
 424:.\Generated_Source\PSoC4/ADC.c **** /*******************************************************************************
 425:.\Generated_Source\PSoC4/ADC.c **** * Function Name: ADC_IsEndConversion
 426:.\Generated_Source\PSoC4/ADC.c **** ********************************************************************************
 427:.\Generated_Source\PSoC4/ADC.c **** *
 428:.\Generated_Source\PSoC4/ADC.c **** * Summary:
 429:.\Generated_Source\PSoC4/ADC.c **** *  Description: Checks for ADC end of conversion for the case one
 430:.\Generated_Source\PSoC4/ADC.c **** *  channel and end of scan for the case of multiple channels. It acts
 431:.\Generated_Source\PSoC4/ADC.c **** *  as a software version of the EOC. This function provides the
 432:.\Generated_Source\PSoC4/ADC.c **** *  programmer with two options. In one mode this function
 433:.\Generated_Source\PSoC4/ADC.c **** *  immediately returns with the conversion status. In the other mode,
 434:.\Generated_Source\PSoC4/ADC.c **** *  the function does not return (blocking) until the conversion has
 435:.\Generated_Source\PSoC4/ADC.c **** *  completed.
 436:.\Generated_Source\PSoC4/ADC.c **** *
 437:.\Generated_Source\PSoC4/ADC.c **** * Parameters:
 438:.\Generated_Source\PSoC4/ADC.c **** *  ADC_RETURN_STATUS        -> Immediately returns conversion result status
 439:.\Generated_Source\PSoC4/ADC.c **** *  ADC_WAIT_FOR_RESULT      -> Does not return until ADC complete
 440:.\Generated_Source\PSoC4/ADC.c **** *  ADC_RETURN_STATUS_INJ    -> Immediately returns conversion result status
ARM GAS  C:\DOCUME~1\Remixvit\LOCALS~1\Temp\ccVIFrYa.s 			page 15


 441:.\Generated_Source\PSoC4/ADC.c **** *                              for injection channel
 442:.\Generated_Source\PSoC4/ADC.c **** *  ADC_WAIT_FOR_RESULT_INJ  -> Does not return until ADC completes injection
 443:.\Generated_Source\PSoC4/ADC.c **** *                              channel conversion
 444:.\Generated_Source\PSoC4/ADC.c **** *
 445:.\Generated_Source\PSoC4/ADC.c **** * Return:
 446:.\Generated_Source\PSoC4/ADC.c **** *  If a non-zero value is returned, the last conversion or scan has completed.
 447:.\Generated_Source\PSoC4/ADC.c **** *  If the returned value is zero, the ADC is still in the process of a scan.
 448:.\Generated_Source\PSoC4/ADC.c **** *
 449:.\Generated_Source\PSoC4/ADC.c **** *******************************************************************************/
 450:.\Generated_Source\PSoC4/ADC.c **** uint32 ADC_IsEndConversion(uint32 retMode)
 451:.\Generated_Source\PSoC4/ADC.c **** {
 349              		.loc 1 451 0
 350              		.cfi_startproc
 351              	.LVL13:
 352 0000 021C     		mov	r2, r0
 353              	.LVL14:
 452:.\Generated_Source\PSoC4/ADC.c ****     uint32 status = 0u;
 453:.\Generated_Source\PSoC4/ADC.c **** 
 454:.\Generated_Source\PSoC4/ADC.c ****     if((retMode & (ADC_RETURN_STATUS | ADC_WAIT_FOR_RESULT)) != 0u)
 354              		.loc 1 454 0
 355 0002 8307     		lsl	r3, r0, #30
 356 0004 0CD0     		beq	.L29
 357              	.LVL15:
 358              	.L28:
 455:.\Generated_Source\PSoC4/ADC.c ****     {
 456:.\Generated_Source\PSoC4/ADC.c ****         do
 457:.\Generated_Source\PSoC4/ADC.c ****         {
 458:.\Generated_Source\PSoC4/ADC.c ****             status = ADC_SAR_INTR_REG & ADC_EOS_MASK;
 359              		.loc 1 458 0 discriminator 2
 360 0006 074B     		ldr	r3, .L30
 361 0008 1B68     		ldr	r3, [r3]
 362 000a 0120     		mov	r0, #1
 363 000c 1840     		and	r0, r3
 364              	.LVL16:
 459:.\Generated_Source\PSoC4/ADC.c ****         }while((status == 0u) && ((retMode & ADC_WAIT_FOR_RESULT) != 0u));
 365              		.loc 1 459 0 discriminator 2
 366 000e 01D1     		bne	.L27
 367              		.loc 1 459 0 is_stmt 0 discriminator 1
 368 0010 9307     		lsl	r3, r2, #30
 369 0012 F8D4     		bmi	.L28
 370              	.L27:
 460:.\Generated_Source\PSoC4/ADC.c **** 
 461:.\Generated_Source\PSoC4/ADC.c ****         if(status != 0u)
 371              		.loc 1 461 0 is_stmt 1
 372 0014 0028     		cmp	r0, #0
 373 0016 04D0     		beq	.L26
 462:.\Generated_Source\PSoC4/ADC.c ****         {
 463:.\Generated_Source\PSoC4/ADC.c ****             /* Clear EOS bit */
 464:.\Generated_Source\PSoC4/ADC.c ****             ADC_SAR_INTR_REG = ADC_EOS_MASK;
 374              		.loc 1 464 0
 375 0018 0122     		mov	r2, #1
 376              	.LVL17:
 377 001a 024B     		ldr	r3, .L30
 378 001c 1A60     		str	r2, [r3]
 379 001e 00E0     		b	.L26
 380              	.LVL18:
 381              	.L29:
ARM GAS  C:\DOCUME~1\Remixvit\LOCALS~1\Temp\ccVIFrYa.s 			page 16


 452:.\Generated_Source\PSoC4/ADC.c **** 
 382              		.loc 1 452 0
 383 0020 0020     		mov	r0, #0
 384              	.LVL19:
 385              	.L26:
 465:.\Generated_Source\PSoC4/ADC.c ****         }
 466:.\Generated_Source\PSoC4/ADC.c ****     }
 467:.\Generated_Source\PSoC4/ADC.c **** 
 468:.\Generated_Source\PSoC4/ADC.c ****     #if(ADC_INJ_CHANNEL_ENABLED)
 469:.\Generated_Source\PSoC4/ADC.c ****         if((retMode & (ADC_RETURN_STATUS_INJ | ADC_WAIT_FOR_RESULT_INJ)) != 0u)
 470:.\Generated_Source\PSoC4/ADC.c ****         {
 471:.\Generated_Source\PSoC4/ADC.c ****             do
 472:.\Generated_Source\PSoC4/ADC.c ****             {
 473:.\Generated_Source\PSoC4/ADC.c ****                 status |= ADC_SAR_INTR_REG & ADC_INJ_EOC_MASK;
 474:.\Generated_Source\PSoC4/ADC.c ****             }while(((status & ADC_INJ_EOC_MASK) == 0u) &&
 475:.\Generated_Source\PSoC4/ADC.c ****                    ((retMode & ADC_WAIT_FOR_RESULT_INJ) != 0u));
 476:.\Generated_Source\PSoC4/ADC.c **** 
 477:.\Generated_Source\PSoC4/ADC.c ****             if((status & ADC_INJ_EOC_MASK) != 0u)
 478:.\Generated_Source\PSoC4/ADC.c ****             {
 479:.\Generated_Source\PSoC4/ADC.c ****                 /* Clear Injection EOS bit */
 480:.\Generated_Source\PSoC4/ADC.c ****                 ADC_SAR_INTR_REG = ADC_INJ_EOC_MASK;
 481:.\Generated_Source\PSoC4/ADC.c ****             }
 482:.\Generated_Source\PSoC4/ADC.c ****         }
 483:.\Generated_Source\PSoC4/ADC.c ****     #endif /* ADC_INJ_CHANNEL_ENABLED */
 484:.\Generated_Source\PSoC4/ADC.c **** 
 485:.\Generated_Source\PSoC4/ADC.c ****     return (status);
 486:.\Generated_Source\PSoC4/ADC.c **** }
 386              		.loc 1 486 0
 387              		@ sp needed
 388 0022 7047     		bx	lr
 389              	.L31:
 390              		.align	2
 391              	.L30:
 392 0024 10021A40 		.word	1075446288
 393              		.cfi_endproc
 394              	.LFE6:
 395              		.size	ADC_IsEndConversion, .-ADC_IsEndConversion
 396              		.section	.text.ADC_GetResult16,"ax",%progbits
 397              		.align	2
 398              		.global	ADC_GetResult16
 399              		.code	16
 400              		.thumb_func
 401              		.type	ADC_GetResult16, %function
 402              	ADC_GetResult16:
 403              	.LFB7:
 487:.\Generated_Source\PSoC4/ADC.c **** 
 488:.\Generated_Source\PSoC4/ADC.c **** 
 489:.\Generated_Source\PSoC4/ADC.c **** /*******************************************************************************
 490:.\Generated_Source\PSoC4/ADC.c **** * Function Name: ADC_GetResult16
 491:.\Generated_Source\PSoC4/ADC.c **** ********************************************************************************
 492:.\Generated_Source\PSoC4/ADC.c **** *
 493:.\Generated_Source\PSoC4/ADC.c **** * Summary:
 494:.\Generated_Source\PSoC4/ADC.c **** *  Gets the data available in the SAR DATA register.
 495:.\Generated_Source\PSoC4/ADC.c **** *
 496:.\Generated_Source\PSoC4/ADC.c **** * Parameters:
 497:.\Generated_Source\PSoC4/ADC.c **** *  chan: The ADC channel in which to return the result. The first channel
 498:.\Generated_Source\PSoC4/ADC.c **** *  is 0 and the injection channel if enabled is the number of valid channels.
ARM GAS  C:\DOCUME~1\Remixvit\LOCALS~1\Temp\ccVIFrYa.s 			page 17


 499:.\Generated_Source\PSoC4/ADC.c **** *
 500:.\Generated_Source\PSoC4/ADC.c **** * Return:
 501:.\Generated_Source\PSoC4/ADC.c **** *  Returns converted data as a signed 16-bit integer
 502:.\Generated_Source\PSoC4/ADC.c **** *
 503:.\Generated_Source\PSoC4/ADC.c **** *******************************************************************************/
 504:.\Generated_Source\PSoC4/ADC.c **** int16 ADC_GetResult16(uint32 chan)
 505:.\Generated_Source\PSoC4/ADC.c **** {
 404              		.loc 1 505 0
 405              		.cfi_startproc
 406              	.LVL20:
 407 0000 10B5     		push	{r4, lr}
 408              		.cfi_def_cfa_offset 8
 409              		.cfi_offset 4, -8
 410              		.cfi_offset 14, -4
 411 0002 041E     		sub	r4, r0, #0
 506:.\Generated_Source\PSoC4/ADC.c ****     uint32 result;
 507:.\Generated_Source\PSoC4/ADC.c **** 
 508:.\Generated_Source\PSoC4/ADC.c ****     /* Halt CPU in debug mode if channel is out of valid range */
 509:.\Generated_Source\PSoC4/ADC.c ****     CYASSERT(chan < ADC_TOTAL_CHANNELS_NUM);
 412              		.loc 1 509 0
 413 0004 02D0     		beq	.L33
 414              		.loc 1 509 0 is_stmt 0 discriminator 1
 415 0006 0020     		mov	r0, #0
 416              	.LVL21:
 417 0008 FFF7FEFF 		bl	CyHalt
 418              	.LVL22:
 419              	.L33:
 510:.\Generated_Source\PSoC4/ADC.c **** 
 511:.\Generated_Source\PSoC4/ADC.c ****     if(chan < ADC_SEQUENCED_CHANNELS_NUM)
 420              		.loc 1 511 0 is_stmt 1
 421 000c 002C     		cmp	r4, #0
 422 000e 07D1     		bne	.L35
 512:.\Generated_Source\PSoC4/ADC.c ****     {
 513:.\Generated_Source\PSoC4/ADC.c ****         result = CY_GET_REG32((reg32 *)(ADC_SAR_CHAN_RESULT_IND + (uint32)(chan << 2u))) &
 423              		.loc 1 513 0
 424 0010 A400     		lsl	r4, r4, #2
 425              	.LVL23:
 426 0012 054B     		ldr	r3, .L36
 427 0014 9C46     		mov	ip, r3
 428 0016 6444     		add	r4, r4, ip
 429 0018 2068     		ldr	r0, [r4]
 430 001a 0004     		lsl	r0, r0, #16
 431 001c 000C     		lsr	r0, r0, #16
 432              	.LVL24:
 433 001e 00E0     		b	.L34
 434              	.LVL25:
 435              	.L35:
 514:.\Generated_Source\PSoC4/ADC.c ****                 ADC_RESULT_MASK;
 515:.\Generated_Source\PSoC4/ADC.c ****     }
 516:.\Generated_Source\PSoC4/ADC.c ****     else
 517:.\Generated_Source\PSoC4/ADC.c ****     {
 518:.\Generated_Source\PSoC4/ADC.c ****         #if(ADC_INJ_CHANNEL_ENABLED)
 519:.\Generated_Source\PSoC4/ADC.c ****             result = ADC_SAR_INJ_RESULT_REG & ADC_RESULT_MASK;
 520:.\Generated_Source\PSoC4/ADC.c ****         #else
 521:.\Generated_Source\PSoC4/ADC.c ****             result = 0u;
 436              		.loc 1 521 0
 437 0020 0020     		mov	r0, #0
ARM GAS  C:\DOCUME~1\Remixvit\LOCALS~1\Temp\ccVIFrYa.s 			page 18


 438              	.LVL26:
 439              	.L34:
 522:.\Generated_Source\PSoC4/ADC.c ****         #endif /* ADC_INJ_CHANNEL_ENABLED */
 523:.\Generated_Source\PSoC4/ADC.c ****     }
 524:.\Generated_Source\PSoC4/ADC.c **** 
 525:.\Generated_Source\PSoC4/ADC.c ****     return ( (int16)result );
 440              		.loc 1 525 0
 441 0022 00B2     		sxth	r0, r0
 442              	.LVL27:
 526:.\Generated_Source\PSoC4/ADC.c **** }
 443              		.loc 1 526 0
 444              		@ sp needed
 445 0024 10BD     		pop	{r4, pc}
 446              	.L37:
 447 0026 C046     		.align	2
 448              	.L36:
 449 0028 80011A40 		.word	1075446144
 450              		.cfi_endproc
 451              	.LFE7:
 452              		.size	ADC_GetResult16, .-ADC_GetResult16
 453              		.section	.text.ADC_SetChanMask,"ax",%progbits
 454              		.align	2
 455              		.global	ADC_SetChanMask
 456              		.code	16
 457              		.thumb_func
 458              		.type	ADC_SetChanMask, %function
 459              	ADC_SetChanMask:
 460              	.LFB8:
 527:.\Generated_Source\PSoC4/ADC.c **** 
 528:.\Generated_Source\PSoC4/ADC.c **** 
 529:.\Generated_Source\PSoC4/ADC.c **** /*******************************************************************************
 530:.\Generated_Source\PSoC4/ADC.c **** * Function Name: ADC_SetChanMask
 531:.\Generated_Source\PSoC4/ADC.c **** ********************************************************************************
 532:.\Generated_Source\PSoC4/ADC.c **** *
 533:.\Generated_Source\PSoC4/ADC.c **** * Summary:
 534:.\Generated_Source\PSoC4/ADC.c **** *  Sets the channel enable mask.
 535:.\Generated_Source\PSoC4/ADC.c **** *
 536:.\Generated_Source\PSoC4/ADC.c **** * Parameters:
 537:.\Generated_Source\PSoC4/ADC.c **** *  mask: Sets which channels that will be
 538:.\Generated_Source\PSoC4/ADC.c **** *  scanned. Setting bits for channels that do not exist will have no
 539:.\Generated_Source\PSoC4/ADC.c **** *  effect. For example, if only 6 channels were enabled, setting a
 540:.\Generated_Source\PSoC4/ADC.c **** *  mask of 0x0103 would only enable the last two channels (0 and 1).
 541:.\Generated_Source\PSoC4/ADC.c **** *  This API will not enable the injection channel.
 542:.\Generated_Source\PSoC4/ADC.c **** *  Examples: If the component is setup to sequence through 8
 543:.\Generated_Source\PSoC4/ADC.c **** *  channels, a mask of 0x000F would enable channels 0, 1, 2, and 3.
 544:.\Generated_Source\PSoC4/ADC.c **** *
 545:.\Generated_Source\PSoC4/ADC.c **** * Return:
 546:.\Generated_Source\PSoC4/ADC.c **** *  None.
 547:.\Generated_Source\PSoC4/ADC.c **** *
 548:.\Generated_Source\PSoC4/ADC.c **** *******************************************************************************/
 549:.\Generated_Source\PSoC4/ADC.c **** void ADC_SetChanMask(uint32 mask)
 550:.\Generated_Source\PSoC4/ADC.c **** {
 461              		.loc 1 550 0
 462              		.cfi_startproc
 463              	.LVL28:
 551:.\Generated_Source\PSoC4/ADC.c ****     ADC_SAR_CHAN_EN_REG = mask & ADC_MAX_CHANNELS_EN_MASK;
 464              		.loc 1 551 0
ARM GAS  C:\DOCUME~1\Remixvit\LOCALS~1\Temp\ccVIFrYa.s 			page 19


 465 0000 0123     		mov	r3, #1
 466 0002 1840     		and	r0, r3
 467              	.LVL29:
 468 0004 014B     		ldr	r3, .L39
 469 0006 1860     		str	r0, [r3]
 552:.\Generated_Source\PSoC4/ADC.c **** }
 470              		.loc 1 552 0
 471              		@ sp needed
 472 0008 7047     		bx	lr
 473              	.L40:
 474 000a C046     		.align	2
 475              	.L39:
 476 000c 20001A40 		.word	1075445792
 477              		.cfi_endproc
 478              	.LFE8:
 479              		.size	ADC_SetChanMask, .-ADC_SetChanMask
 480              		.section	.text.ADC_SetLowLimit,"ax",%progbits
 481              		.align	2
 482              		.global	ADC_SetLowLimit
 483              		.code	16
 484              		.thumb_func
 485              		.type	ADC_SetLowLimit, %function
 486              	ADC_SetLowLimit:
 487              	.LFB9:
 553:.\Generated_Source\PSoC4/ADC.c **** 
 554:.\Generated_Source\PSoC4/ADC.c **** #if(ADC_INJ_CHANNEL_ENABLED)
 555:.\Generated_Source\PSoC4/ADC.c **** 
 556:.\Generated_Source\PSoC4/ADC.c **** 
 557:.\Generated_Source\PSoC4/ADC.c ****     /*******************************************************************************
 558:.\Generated_Source\PSoC4/ADC.c ****     * Function Name: ADC_EnableInjection
 559:.\Generated_Source\PSoC4/ADC.c ****     ********************************************************************************
 560:.\Generated_Source\PSoC4/ADC.c ****     *
 561:.\Generated_Source\PSoC4/ADC.c ****     * Summary:
 562:.\Generated_Source\PSoC4/ADC.c ****     *  Enables the injection channel for the next scan only.
 563:.\Generated_Source\PSoC4/ADC.c ****     *
 564:.\Generated_Source\PSoC4/ADC.c ****     * Parameters:
 565:.\Generated_Source\PSoC4/ADC.c ****     *  None.
 566:.\Generated_Source\PSoC4/ADC.c ****     *
 567:.\Generated_Source\PSoC4/ADC.c ****     * Return:
 568:.\Generated_Source\PSoC4/ADC.c ****     *  None.
 569:.\Generated_Source\PSoC4/ADC.c ****     *
 570:.\Generated_Source\PSoC4/ADC.c ****     *******************************************************************************/
 571:.\Generated_Source\PSoC4/ADC.c ****     void ADC_EnableInjection(void)
 572:.\Generated_Source\PSoC4/ADC.c ****     {
 573:.\Generated_Source\PSoC4/ADC.c ****         ADC_SAR_INJ_CHAN_CONFIG_REG |= ADC_INJ_CHAN_EN;
 574:.\Generated_Source\PSoC4/ADC.c ****     }
 575:.\Generated_Source\PSoC4/ADC.c **** 
 576:.\Generated_Source\PSoC4/ADC.c **** #endif /* ADC_INJ_CHANNEL_ENABLED */
 577:.\Generated_Source\PSoC4/ADC.c **** 
 578:.\Generated_Source\PSoC4/ADC.c **** 
 579:.\Generated_Source\PSoC4/ADC.c **** /*******************************************************************************
 580:.\Generated_Source\PSoC4/ADC.c **** * Function Name: ADC_SetLowLimit
 581:.\Generated_Source\PSoC4/ADC.c **** ********************************************************************************
 582:.\Generated_Source\PSoC4/ADC.c **** *
 583:.\Generated_Source\PSoC4/ADC.c **** * Summary:
 584:.\Generated_Source\PSoC4/ADC.c **** *  Sets the low limit parameter for a limit condition.
 585:.\Generated_Source\PSoC4/ADC.c **** *
ARM GAS  C:\DOCUME~1\Remixvit\LOCALS~1\Temp\ccVIFrYa.s 			page 20


 586:.\Generated_Source\PSoC4/ADC.c **** * Parameters:
 587:.\Generated_Source\PSoC4/ADC.c **** *  lowLimit: The low limit for a limit condition.
 588:.\Generated_Source\PSoC4/ADC.c **** *
 589:.\Generated_Source\PSoC4/ADC.c **** * Return:
 590:.\Generated_Source\PSoC4/ADC.c **** *  None.
 591:.\Generated_Source\PSoC4/ADC.c **** *
 592:.\Generated_Source\PSoC4/ADC.c **** *******************************************************************************/
 593:.\Generated_Source\PSoC4/ADC.c **** void ADC_SetLowLimit(uint32 lowLimit)
 594:.\Generated_Source\PSoC4/ADC.c **** {
 488              		.loc 1 594 0
 489              		.cfi_startproc
 490              	.LVL30:
 595:.\Generated_Source\PSoC4/ADC.c ****     ADC_SAR_RANGE_THRES_REG &= (uint32)(~ADC_RANGE_LOW_MASK);
 491              		.loc 1 595 0
 492 0000 054A     		ldr	r2, .L42
 493 0002 1368     		ldr	r3, [r2]
 494 0004 1B0C     		lsr	r3, r3, #16
 495 0006 1B04     		lsl	r3, r3, #16
 496 0008 1360     		str	r3, [r2]
 596:.\Generated_Source\PSoC4/ADC.c ****     ADC_SAR_RANGE_THRES_REG |= lowLimit & ADC_RANGE_LOW_MASK;
 497              		.loc 1 596 0
 498 000a 1368     		ldr	r3, [r2]
 499 000c 0004     		lsl	r0, r0, #16
 500              	.LVL31:
 501 000e 000C     		lsr	r0, r0, #16
 502 0010 1843     		orr	r0, r3
 503 0012 1060     		str	r0, [r2]
 597:.\Generated_Source\PSoC4/ADC.c **** }
 504              		.loc 1 597 0
 505              		@ sp needed
 506 0014 7047     		bx	lr
 507              	.L43:
 508 0016 C046     		.align	2
 509              	.L42:
 510 0018 18001A40 		.word	1075445784
 511              		.cfi_endproc
 512              	.LFE9:
 513              		.size	ADC_SetLowLimit, .-ADC_SetLowLimit
 514              		.section	.text.ADC_SetHighLimit,"ax",%progbits
 515              		.align	2
 516              		.global	ADC_SetHighLimit
 517              		.code	16
 518              		.thumb_func
 519              		.type	ADC_SetHighLimit, %function
 520              	ADC_SetHighLimit:
 521              	.LFB10:
 598:.\Generated_Source\PSoC4/ADC.c **** 
 599:.\Generated_Source\PSoC4/ADC.c **** 
 600:.\Generated_Source\PSoC4/ADC.c **** /*******************************************************************************
 601:.\Generated_Source\PSoC4/ADC.c **** * Function Name: ADC_SetHighLimit
 602:.\Generated_Source\PSoC4/ADC.c **** ********************************************************************************
 603:.\Generated_Source\PSoC4/ADC.c **** *
 604:.\Generated_Source\PSoC4/ADC.c **** * Summary:
 605:.\Generated_Source\PSoC4/ADC.c **** *  Sets the low limit parameter for a limit condition.
 606:.\Generated_Source\PSoC4/ADC.c **** *
 607:.\Generated_Source\PSoC4/ADC.c **** * Parameters:
 608:.\Generated_Source\PSoC4/ADC.c **** *  highLimit: The high limit for a limit condition.
ARM GAS  C:\DOCUME~1\Remixvit\LOCALS~1\Temp\ccVIFrYa.s 			page 21


 609:.\Generated_Source\PSoC4/ADC.c **** *
 610:.\Generated_Source\PSoC4/ADC.c **** * Return:
 611:.\Generated_Source\PSoC4/ADC.c **** *  None.
 612:.\Generated_Source\PSoC4/ADC.c **** *
 613:.\Generated_Source\PSoC4/ADC.c **** *******************************************************************************/
 614:.\Generated_Source\PSoC4/ADC.c **** void ADC_SetHighLimit(uint32 highLimit)
 615:.\Generated_Source\PSoC4/ADC.c **** {
 522              		.loc 1 615 0
 523              		.cfi_startproc
 524              	.LVL32:
 616:.\Generated_Source\PSoC4/ADC.c ****     ADC_SAR_RANGE_THRES_REG &= (uint32)(~ADC_RANGE_HIGH_MASK);
 525              		.loc 1 616 0
 526 0000 044A     		ldr	r2, .L45
 527 0002 1368     		ldr	r3, [r2]
 528 0004 1B04     		lsl	r3, r3, #16
 529 0006 1B0C     		lsr	r3, r3, #16
 530 0008 1360     		str	r3, [r2]
 617:.\Generated_Source\PSoC4/ADC.c ****     ADC_SAR_RANGE_THRES_REG |= (uint32)(highLimit << ADC_RANGE_HIGH_OFFSET);
 531              		.loc 1 617 0
 532 000a 1368     		ldr	r3, [r2]
 533 000c 0004     		lsl	r0, r0, #16
 534              	.LVL33:
 535 000e 1843     		orr	r0, r3
 536 0010 1060     		str	r0, [r2]
 618:.\Generated_Source\PSoC4/ADC.c **** }
 537              		.loc 1 618 0
 538              		@ sp needed
 539 0012 7047     		bx	lr
 540              	.L46:
 541              		.align	2
 542              	.L45:
 543 0014 18001A40 		.word	1075445784
 544              		.cfi_endproc
 545              	.LFE10:
 546              		.size	ADC_SetHighLimit, .-ADC_SetHighLimit
 547              		.section	.text.ADC_SetLimitMask,"ax",%progbits
 548              		.align	2
 549              		.global	ADC_SetLimitMask
 550              		.code	16
 551              		.thumb_func
 552              		.type	ADC_SetLimitMask, %function
 553              	ADC_SetLimitMask:
 554              	.LFB11:
 619:.\Generated_Source\PSoC4/ADC.c **** 
 620:.\Generated_Source\PSoC4/ADC.c **** 
 621:.\Generated_Source\PSoC4/ADC.c **** /*******************************************************************************
 622:.\Generated_Source\PSoC4/ADC.c **** * Function Name: ADC_SetLimitMask
 623:.\Generated_Source\PSoC4/ADC.c **** ********************************************************************************
 624:.\Generated_Source\PSoC4/ADC.c **** *
 625:.\Generated_Source\PSoC4/ADC.c **** * Summary:
 626:.\Generated_Source\PSoC4/ADC.c **** *  Sets the channel limit condition mask.
 627:.\Generated_Source\PSoC4/ADC.c **** *
 628:.\Generated_Source\PSoC4/ADC.c **** * Parameters:
 629:.\Generated_Source\PSoC4/ADC.c **** *  mask: Sets which channels that may cause a
 630:.\Generated_Source\PSoC4/ADC.c **** *  limit condition interrupt. Setting bits for channels that do not exist
 631:.\Generated_Source\PSoC4/ADC.c **** *  will have no effect. For example, if only 6 channels were enabled,
 632:.\Generated_Source\PSoC4/ADC.c **** *  setting a mask of 0x0103 would only enable the last two channels (0 and 1).
ARM GAS  C:\DOCUME~1\Remixvit\LOCALS~1\Temp\ccVIFrYa.s 			page 22


 633:.\Generated_Source\PSoC4/ADC.c **** *
 634:.\Generated_Source\PSoC4/ADC.c **** * Return:
 635:.\Generated_Source\PSoC4/ADC.c **** *  None.
 636:.\Generated_Source\PSoC4/ADC.c **** *
 637:.\Generated_Source\PSoC4/ADC.c **** *******************************************************************************/
 638:.\Generated_Source\PSoC4/ADC.c **** void ADC_SetLimitMask(uint32 mask)
 639:.\Generated_Source\PSoC4/ADC.c **** {
 555              		.loc 1 639 0
 556              		.cfi_startproc
 557              	.LVL34:
 640:.\Generated_Source\PSoC4/ADC.c ****     ADC_SAR_RANGE_INTR_MASK_REG = mask & ADC_MAX_CHANNELS_EN_MASK;
 558              		.loc 1 640 0
 559 0000 0123     		mov	r3, #1
 560 0002 1840     		and	r0, r3
 561              	.LVL35:
 562 0004 014B     		ldr	r3, .L48
 563 0006 1860     		str	r0, [r3]
 641:.\Generated_Source\PSoC4/ADC.c **** }
 564              		.loc 1 641 0
 565              		@ sp needed
 566 0008 7047     		bx	lr
 567              	.L49:
 568 000a C046     		.align	2
 569              	.L48:
 570 000c 38021A40 		.word	1075446328
 571              		.cfi_endproc
 572              	.LFE11:
 573              		.size	ADC_SetLimitMask, .-ADC_SetLimitMask
 574              		.section	.text.ADC_SetSatMask,"ax",%progbits
 575              		.align	2
 576              		.global	ADC_SetSatMask
 577              		.code	16
 578              		.thumb_func
 579              		.type	ADC_SetSatMask, %function
 580              	ADC_SetSatMask:
 581              	.LFB12:
 642:.\Generated_Source\PSoC4/ADC.c **** 
 643:.\Generated_Source\PSoC4/ADC.c **** 
 644:.\Generated_Source\PSoC4/ADC.c **** /*******************************************************************************
 645:.\Generated_Source\PSoC4/ADC.c **** * Function Name: ADC_SetSatMask
 646:.\Generated_Source\PSoC4/ADC.c **** ********************************************************************************
 647:.\Generated_Source\PSoC4/ADC.c **** *
 648:.\Generated_Source\PSoC4/ADC.c **** * Summary:
 649:.\Generated_Source\PSoC4/ADC.c **** *  Sets the channel saturation event mask.
 650:.\Generated_Source\PSoC4/ADC.c **** *
 651:.\Generated_Source\PSoC4/ADC.c **** * Parameters:
 652:.\Generated_Source\PSoC4/ADC.c **** *  mask: Sets which channels that may cause a
 653:.\Generated_Source\PSoC4/ADC.c **** *  saturation event interrupt. Setting bits for channels that do not exist
 654:.\Generated_Source\PSoC4/ADC.c **** *  will have no effect. For example, if only 8 channels were enabled,
 655:.\Generated_Source\PSoC4/ADC.c **** *  setting a mask of 0x01C0 would only enable two channels (6 and 7).
 656:.\Generated_Source\PSoC4/ADC.c **** *
 657:.\Generated_Source\PSoC4/ADC.c **** * Return:
 658:.\Generated_Source\PSoC4/ADC.c **** *  None.
 659:.\Generated_Source\PSoC4/ADC.c **** *
 660:.\Generated_Source\PSoC4/ADC.c **** *******************************************************************************/
 661:.\Generated_Source\PSoC4/ADC.c **** void ADC_SetSatMask(uint32 mask)
 662:.\Generated_Source\PSoC4/ADC.c **** {
ARM GAS  C:\DOCUME~1\Remixvit\LOCALS~1\Temp\ccVIFrYa.s 			page 23


 582              		.loc 1 662 0
 583              		.cfi_startproc
 584              	.LVL36:
 663:.\Generated_Source\PSoC4/ADC.c ****     ADC_SAR_SATURATE_INTR_MASK_REG = mask & ADC_MAX_CHANNELS_EN_MASK;
 585              		.loc 1 663 0
 586 0000 0123     		mov	r3, #1
 587 0002 1840     		and	r0, r3
 588              	.LVL37:
 589 0004 014B     		ldr	r3, .L51
 590 0006 1860     		str	r0, [r3]
 664:.\Generated_Source\PSoC4/ADC.c **** }
 591              		.loc 1 664 0
 592              		@ sp needed
 593 0008 7047     		bx	lr
 594              	.L52:
 595 000a C046     		.align	2
 596              	.L51:
 597 000c 28021A40 		.word	1075446312
 598              		.cfi_endproc
 599              	.LFE12:
 600              		.size	ADC_SetSatMask, .-ADC_SetSatMask
 601              		.section	.text.ADC_SetOffset,"ax",%progbits
 602              		.align	2
 603              		.global	ADC_SetOffset
 604              		.code	16
 605              		.thumb_func
 606              		.type	ADC_SetOffset, %function
 607              	ADC_SetOffset:
 608              	.LFB13:
 665:.\Generated_Source\PSoC4/ADC.c **** 
 666:.\Generated_Source\PSoC4/ADC.c **** 
 667:.\Generated_Source\PSoC4/ADC.c **** /*******************************************************************************
 668:.\Generated_Source\PSoC4/ADC.c **** * Function Name: ADC_SetOffset
 669:.\Generated_Source\PSoC4/ADC.c **** ********************************************************************************
 670:.\Generated_Source\PSoC4/ADC.c **** *
 671:.\Generated_Source\PSoC4/ADC.c **** * Summary:
 672:.\Generated_Source\PSoC4/ADC.c **** *   Description: Sets the ADC offset which is used by the functions
 673:.\Generated_Source\PSoC4/ADC.c **** *   ADC_CountsTo_uVolts, ADC_CountsTo_mVolts and ADC_CountsTo_Volts
 674:.\Generated_Source\PSoC4/ADC.c **** *   to substract the offset from the given reading
 675:.\Generated_Source\PSoC4/ADC.c **** *   before calculating the voltage conversion.
 676:.\Generated_Source\PSoC4/ADC.c **** *
 677:.\Generated_Source\PSoC4/ADC.c **** * Parameters:
 678:.\Generated_Source\PSoC4/ADC.c **** *  chan: ADC channel number.
 679:.\Generated_Source\PSoC4/ADC.c **** *  offset: This value is a measured value when the
 680:.\Generated_Source\PSoC4/ADC.c **** *          inputs are shorted or connected to the same input voltage.
 681:.\Generated_Source\PSoC4/ADC.c **** *
 682:.\Generated_Source\PSoC4/ADC.c **** * Return:
 683:.\Generated_Source\PSoC4/ADC.c **** *  None.
 684:.\Generated_Source\PSoC4/ADC.c **** *
 685:.\Generated_Source\PSoC4/ADC.c **** * Global variables:
 686:.\Generated_Source\PSoC4/ADC.c **** *  ADC_Offset:  Modified to set the user provided offset.
 687:.\Generated_Source\PSoC4/ADC.c **** *
 688:.\Generated_Source\PSoC4/ADC.c **** *******************************************************************************/
 689:.\Generated_Source\PSoC4/ADC.c **** void ADC_SetOffset(uint32 chan, int16 offset)
 690:.\Generated_Source\PSoC4/ADC.c **** {
 609              		.loc 1 690 0
 610              		.cfi_startproc
ARM GAS  C:\DOCUME~1\Remixvit\LOCALS~1\Temp\ccVIFrYa.s 			page 24


 611              	.LVL38:
 612 0000 38B5     		push	{r3, r4, r5, lr}
 613              		.cfi_def_cfa_offset 16
 614              		.cfi_offset 3, -16
 615              		.cfi_offset 4, -12
 616              		.cfi_offset 5, -8
 617              		.cfi_offset 14, -4
 618 0002 041C     		mov	r4, r0
 619 0004 0D1C     		mov	r5, r1
 691:.\Generated_Source\PSoC4/ADC.c ****     /* Halt CPU in debug mode if channel is out of valid range */
 692:.\Generated_Source\PSoC4/ADC.c ****     CYASSERT(chan < ADC_TOTAL_CHANNELS_NUM);
 620              		.loc 1 692 0
 621 0006 0028     		cmp	r0, #0
 622 0008 02D0     		beq	.L54
 623              		.loc 1 692 0 is_stmt 0 discriminator 1
 624 000a 0020     		mov	r0, #0
 625              	.LVL39:
 626 000c FFF7FEFF 		bl	CyHalt
 627              	.LVL40:
 628              	.L54:
 693:.\Generated_Source\PSoC4/ADC.c **** 
 694:.\Generated_Source\PSoC4/ADC.c ****     ADC_offset[chan] = offset;
 629              		.loc 1 694 0 is_stmt 1
 630 0010 6400     		lsl	r4, r4, #1
 631              	.LVL41:
 632 0012 014B     		ldr	r3, .L55
 633 0014 E552     		strh	r5, [r4, r3]
 695:.\Generated_Source\PSoC4/ADC.c **** }
 634              		.loc 1 695 0
 635              		@ sp needed
 636 0016 38BD     		pop	{r3, r4, r5, pc}
 637              	.L56:
 638              		.align	2
 639              	.L55:
 640 0018 00000000 		.word	ADC_offset
 641              		.cfi_endproc
 642              	.LFE13:
 643              		.size	ADC_SetOffset, .-ADC_SetOffset
 644              		.section	.text.ADC_SetGain,"ax",%progbits
 645              		.align	2
 646              		.global	ADC_SetGain
 647              		.code	16
 648              		.thumb_func
 649              		.type	ADC_SetGain, %function
 650              	ADC_SetGain:
 651              	.LFB14:
 696:.\Generated_Source\PSoC4/ADC.c **** 
 697:.\Generated_Source\PSoC4/ADC.c **** 
 698:.\Generated_Source\PSoC4/ADC.c **** /*******************************************************************************
 699:.\Generated_Source\PSoC4/ADC.c **** * Function Name: ADC_SetGain
 700:.\Generated_Source\PSoC4/ADC.c **** ********************************************************************************
 701:.\Generated_Source\PSoC4/ADC.c **** *
 702:.\Generated_Source\PSoC4/ADC.c **** * Summary:
 703:.\Generated_Source\PSoC4/ADC.c **** *  Description: Sets the ADC gain in counts per 10 volt for the voltage
 704:.\Generated_Source\PSoC4/ADC.c **** *  conversion functions below. This value is set by default by the
 705:.\Generated_Source\PSoC4/ADC.c **** *  reference and input range settings. It should only be used to further
 706:.\Generated_Source\PSoC4/ADC.c **** *  calibrate the ADC with a known input or if an external reference is
ARM GAS  C:\DOCUME~1\Remixvit\LOCALS~1\Temp\ccVIFrYa.s 			page 25


 707:.\Generated_Source\PSoC4/ADC.c **** *  used. Affects the ADC_CountsTo_uVolts, ADC_CountsTo_mVolts
 708:.\Generated_Source\PSoC4/ADC.c **** *  and ADC_CountsTo_Volts functions by supplying the correct
 709:.\Generated_Source\PSoC4/ADC.c **** *  conversion between ADC counts and voltage.
 710:.\Generated_Source\PSoC4/ADC.c **** *
 711:.\Generated_Source\PSoC4/ADC.c **** * Parameters:
 712:.\Generated_Source\PSoC4/ADC.c **** *  chan: ADC channel number.
 713:.\Generated_Source\PSoC4/ADC.c **** *  adcGain: ADC gain in counts per 10 volts.
 714:.\Generated_Source\PSoC4/ADC.c **** *
 715:.\Generated_Source\PSoC4/ADC.c **** * Return:
 716:.\Generated_Source\PSoC4/ADC.c **** *  None.
 717:.\Generated_Source\PSoC4/ADC.c **** *
 718:.\Generated_Source\PSoC4/ADC.c **** * Global variables:
 719:.\Generated_Source\PSoC4/ADC.c **** *  ADC_CountsPer10Volt:  modified to set the ADC gain in counts
 720:.\Generated_Source\PSoC4/ADC.c **** *   per 10 volt.
 721:.\Generated_Source\PSoC4/ADC.c **** *
 722:.\Generated_Source\PSoC4/ADC.c **** *******************************************************************************/
 723:.\Generated_Source\PSoC4/ADC.c **** void ADC_SetGain(uint32 chan, int32 adcGain)
 724:.\Generated_Source\PSoC4/ADC.c **** {
 652              		.loc 1 724 0
 653              		.cfi_startproc
 654              	.LVL42:
 655 0000 38B5     		push	{r3, r4, r5, lr}
 656              		.cfi_def_cfa_offset 16
 657              		.cfi_offset 3, -16
 658              		.cfi_offset 4, -12
 659              		.cfi_offset 5, -8
 660              		.cfi_offset 14, -4
 661 0002 041C     		mov	r4, r0
 662 0004 0D1C     		mov	r5, r1
 725:.\Generated_Source\PSoC4/ADC.c ****     /* Halt CPU in debug mode if channel is out of valid range */
 726:.\Generated_Source\PSoC4/ADC.c ****     CYASSERT(chan < ADC_TOTAL_CHANNELS_NUM);
 663              		.loc 1 726 0
 664 0006 0028     		cmp	r0, #0
 665 0008 02D0     		beq	.L58
 666              		.loc 1 726 0 is_stmt 0 discriminator 1
 667 000a 0020     		mov	r0, #0
 668              	.LVL43:
 669 000c FFF7FEFF 		bl	CyHalt
 670              	.LVL44:
 671              	.L58:
 727:.\Generated_Source\PSoC4/ADC.c **** 
 728:.\Generated_Source\PSoC4/ADC.c ****     ADC_countsPer10Volt[chan] = adcGain;
 672              		.loc 1 728 0 is_stmt 1
 673 0010 A400     		lsl	r4, r4, #2
 674              	.LVL45:
 675 0012 014B     		ldr	r3, .L59
 676 0014 E550     		str	r5, [r4, r3]
 729:.\Generated_Source\PSoC4/ADC.c **** }
 677              		.loc 1 729 0
 678              		@ sp needed
 679              	.LVL46:
 680 0016 38BD     		pop	{r3, r4, r5, pc}
 681              	.L60:
 682              		.align	2
 683              	.L59:
 684 0018 00000000 		.word	ADC_countsPer10Volt
 685              		.cfi_endproc
ARM GAS  C:\DOCUME~1\Remixvit\LOCALS~1\Temp\ccVIFrYa.s 			page 26


 686              	.LFE14:
 687              		.size	ADC_SetGain, .-ADC_SetGain
 688              		.global	__aeabi_idiv
 689              		.section	.text.ADC_CountsTo_mVolts,"ax",%progbits
 690              		.align	2
 691              		.global	ADC_CountsTo_mVolts
 692              		.code	16
 693              		.thumb_func
 694              		.type	ADC_CountsTo_mVolts, %function
 695              	ADC_CountsTo_mVolts:
 696              	.LFB15:
 730:.\Generated_Source\PSoC4/ADC.c **** 
 731:.\Generated_Source\PSoC4/ADC.c **** 
 732:.\Generated_Source\PSoC4/ADC.c **** #if(ADC_DEFAULT_JUSTIFICATION_SEL == ADC__RIGHT)
 733:.\Generated_Source\PSoC4/ADC.c **** 
 734:.\Generated_Source\PSoC4/ADC.c **** 
 735:.\Generated_Source\PSoC4/ADC.c ****     /*******************************************************************************
 736:.\Generated_Source\PSoC4/ADC.c ****     * Function Name: ADC_CountsTo_mVolts
 737:.\Generated_Source\PSoC4/ADC.c ****     ********************************************************************************
 738:.\Generated_Source\PSoC4/ADC.c ****     *
 739:.\Generated_Source\PSoC4/ADC.c ****     * Summary:
 740:.\Generated_Source\PSoC4/ADC.c ****     *  This function converts ADC counts to mVolts
 741:.\Generated_Source\PSoC4/ADC.c ****     *  This function is not available when left data format justification selected.
 742:.\Generated_Source\PSoC4/ADC.c ****     *
 743:.\Generated_Source\PSoC4/ADC.c ****     * Parameters:
 744:.\Generated_Source\PSoC4/ADC.c ****     *  chan: The ADC channel number.
 745:.\Generated_Source\PSoC4/ADC.c ****     *  adcCounts: Result from the ADC conversion
 746:.\Generated_Source\PSoC4/ADC.c ****     *
 747:.\Generated_Source\PSoC4/ADC.c ****     * Return:
 748:.\Generated_Source\PSoC4/ADC.c ****     *  Results in mVolts
 749:.\Generated_Source\PSoC4/ADC.c ****     *
 750:.\Generated_Source\PSoC4/ADC.c ****     * Global variables:
 751:.\Generated_Source\PSoC4/ADC.c ****     *  ADC_countsPer10Volt:  used to convert ADC counts to mVolts.
 752:.\Generated_Source\PSoC4/ADC.c ****     *  ADC_Offset:  Used as the offset while converting ADC counts
 753:.\Generated_Source\PSoC4/ADC.c ****     *   to mVolts.
 754:.\Generated_Source\PSoC4/ADC.c ****     *
 755:.\Generated_Source\PSoC4/ADC.c ****     *******************************************************************************/
 756:.\Generated_Source\PSoC4/ADC.c ****     int16 ADC_CountsTo_mVolts(uint32 chan, int16 adcCounts)
 757:.\Generated_Source\PSoC4/ADC.c ****     {
 697              		.loc 1 757 0
 698              		.cfi_startproc
 699              	.LVL47:
 700 0000 38B5     		push	{r3, r4, r5, lr}
 701              		.cfi_def_cfa_offset 16
 702              		.cfi_offset 3, -16
 703              		.cfi_offset 4, -12
 704              		.cfi_offset 5, -8
 705              		.cfi_offset 14, -4
 706 0002 041C     		mov	r4, r0
 707 0004 0D1C     		mov	r5, r1
 758:.\Generated_Source\PSoC4/ADC.c ****         int16 mVolts;
 759:.\Generated_Source\PSoC4/ADC.c **** 
 760:.\Generated_Source\PSoC4/ADC.c ****         /* Halt CPU in debug mode if channel is out of valid range */
 761:.\Generated_Source\PSoC4/ADC.c ****         CYASSERT(chan < ADC_TOTAL_CHANNELS_NUM);
 708              		.loc 1 761 0
 709 0006 0028     		cmp	r0, #0
 710 0008 02D0     		beq	.L62
ARM GAS  C:\DOCUME~1\Remixvit\LOCALS~1\Temp\ccVIFrYa.s 			page 27


 711              		.loc 1 761 0 is_stmt 0 discriminator 1
 712 000a 0020     		mov	r0, #0
 713              	.LVL48:
 714 000c FFF7FEFF 		bl	CyHalt
 715              	.LVL49:
 716              	.L62:
 762:.\Generated_Source\PSoC4/ADC.c **** 
 763:.\Generated_Source\PSoC4/ADC.c ****         /* Divide the adcCount when accumulate averaging mode selected */
 764:.\Generated_Source\PSoC4/ADC.c ****         #if(ADC_DEFAULT_AVG_MODE == ADC__ACCUMULATE)
 765:.\Generated_Source\PSoC4/ADC.c ****             if((ADC_channelsConfig[chan] & ADC_AVERAGING_EN) != 0u)
 766:.\Generated_Source\PSoC4/ADC.c ****             {
 767:.\Generated_Source\PSoC4/ADC.c ****                 adcCounts /= ADC_DEFAULT_AVG_SAMPLES_DIV;
 768:.\Generated_Source\PSoC4/ADC.c ****             }
 769:.\Generated_Source\PSoC4/ADC.c ****         #endif /* ADC_DEFAULT_AVG_MODE == ADC__ACCUMULATE */
 770:.\Generated_Source\PSoC4/ADC.c **** 
 771:.\Generated_Source\PSoC4/ADC.c ****         /* Subtract ADC offset */
 772:.\Generated_Source\PSoC4/ADC.c ****         adcCounts -= ADC_offset[chan];
 717              		.loc 1 772 0 is_stmt 1
 718 0010 6300     		lsl	r3, r4, #1
 719 0012 0F4A     		ldr	r2, .L65
 720 0014 995A     		ldrh	r1, [r3, r2]
 721 0016 691A     		sub	r1, r5, r1
 722 0018 09B2     		sxth	r1, r1
 723              	.LVL50:
 773:.\Generated_Source\PSoC4/ADC.c **** 
 774:.\Generated_Source\PSoC4/ADC.c ****         mVolts = (int16)((((int32)adcCounts * ADC_10MV_COUNTS) + ( (adcCounts > 0) ?
 724              		.loc 1 774 0
 725 001a 0E48     		ldr	r0, .L65+4
 726 001c 021C     		mov	r2, r0
 727 001e 4A43     		mul	r2, r1
 775:.\Generated_Source\PSoC4/ADC.c ****                  (ADC_countsPer10Volt[chan] / 2) : (-(ADC_countsPer10Volt[chan] / 2)) ))
 728              		.loc 1 775 0
 729 0020 0029     		cmp	r1, #0
 730 0022 06DD     		ble	.L63
 731              		.loc 1 775 0 is_stmt 0 discriminator 1
 732 0024 A300     		lsl	r3, r4, #2
 733 0026 0C49     		ldr	r1, .L65+8
 734              	.LVL51:
 735 0028 5B58     		ldr	r3, [r3, r1]
 736 002a D80F     		lsr	r0, r3, #31
 737 002c C018     		add	r0, r0, r3
 738 002e 4310     		asr	r3, r0, #1
 739 0030 06E0     		b	.L64
 740              	.LVL52:
 741              	.L63:
 742              		.loc 1 775 0 discriminator 2
 743 0032 A300     		lsl	r3, r4, #2
 744 0034 0849     		ldr	r1, .L65+8
 745              	.LVL53:
 746 0036 5B58     		ldr	r3, [r3, r1]
 747 0038 D80F     		lsr	r0, r3, #31
 748 003a C318     		add	r3, r0, r3
 749 003c 5B10     		asr	r3, r3, #1
 750 003e 5B42     		neg	r3, r3
 751              	.L64:
 774:.\Generated_Source\PSoC4/ADC.c ****                  (ADC_countsPer10Volt[chan] / 2) : (-(ADC_countsPer10Volt[chan] / 2)) ))
 752              		.loc 1 774 0 is_stmt 1
ARM GAS  C:\DOCUME~1\Remixvit\LOCALS~1\Temp\ccVIFrYa.s 			page 28


 753 0040 D018     		add	r0, r2, r3
 776:.\Generated_Source\PSoC4/ADC.c ****                  / ADC_countsPer10Volt[chan]);
 754              		.loc 1 776 0
 755 0042 A400     		lsl	r4, r4, #2
 756              	.LVL54:
 757 0044 044B     		ldr	r3, .L65+8
 758 0046 E158     		ldr	r1, [r4, r3]
 759 0048 FFF7FEFF 		bl	__aeabi_idiv
 760              	.LVL55:
 777:.\Generated_Source\PSoC4/ADC.c **** 
 778:.\Generated_Source\PSoC4/ADC.c ****         return( mVolts );
 761              		.loc 1 778 0
 762 004c 00B2     		sxth	r0, r0
 779:.\Generated_Source\PSoC4/ADC.c ****     }
 763              		.loc 1 779 0
 764              		@ sp needed
 765 004e 38BD     		pop	{r3, r4, r5, pc}
 766              	.L66:
 767              		.align	2
 768              	.L65:
 769 0050 00000000 		.word	ADC_offset
 770 0054 10270000 		.word	10000
 771 0058 00000000 		.word	ADC_countsPer10Volt
 772              		.cfi_endproc
 773              	.LFE15:
 774              		.size	ADC_CountsTo_mVolts, .-ADC_CountsTo_mVolts
 775              		.global	__aeabi_lmul
 776              		.global	__aeabi_ldivmod
 777              		.section	.text.ADC_CountsTo_uVolts,"ax",%progbits
 778              		.align	2
 779              		.global	ADC_CountsTo_uVolts
 780              		.code	16
 781              		.thumb_func
 782              		.type	ADC_CountsTo_uVolts, %function
 783              	ADC_CountsTo_uVolts:
 784              	.LFB16:
 780:.\Generated_Source\PSoC4/ADC.c **** 
 781:.\Generated_Source\PSoC4/ADC.c **** 
 782:.\Generated_Source\PSoC4/ADC.c ****     /*******************************************************************************
 783:.\Generated_Source\PSoC4/ADC.c ****     * Function Name: ADC_CountsTo_uVolts
 784:.\Generated_Source\PSoC4/ADC.c ****     ********************************************************************************
 785:.\Generated_Source\PSoC4/ADC.c ****     *
 786:.\Generated_Source\PSoC4/ADC.c ****     * Summary:
 787:.\Generated_Source\PSoC4/ADC.c ****     *  This function converts ADC counts to micro Volts
 788:.\Generated_Source\PSoC4/ADC.c ****     *  This function is not available when left data format justification selected.
 789:.\Generated_Source\PSoC4/ADC.c ****     *
 790:.\Generated_Source\PSoC4/ADC.c ****     * Parameters:
 791:.\Generated_Source\PSoC4/ADC.c ****     *  chan: The ADC channel number.
 792:.\Generated_Source\PSoC4/ADC.c ****     *  adcCounts: Result from the ADC conversion
 793:.\Generated_Source\PSoC4/ADC.c ****     *
 794:.\Generated_Source\PSoC4/ADC.c ****     * Return:
 795:.\Generated_Source\PSoC4/ADC.c ****     *  Results in uVolts
 796:.\Generated_Source\PSoC4/ADC.c ****     *
 797:.\Generated_Source\PSoC4/ADC.c ****     * Global variables:
 798:.\Generated_Source\PSoC4/ADC.c ****     *  ADC_countsPer10Volt:  used to convert ADC counts to uVolts.
 799:.\Generated_Source\PSoC4/ADC.c ****     *  ADC_Offset:  Used as the offset while converting ADC counts
 800:.\Generated_Source\PSoC4/ADC.c ****     *   to mVolts.
ARM GAS  C:\DOCUME~1\Remixvit\LOCALS~1\Temp\ccVIFrYa.s 			page 29


 801:.\Generated_Source\PSoC4/ADC.c ****     *
 802:.\Generated_Source\PSoC4/ADC.c ****     * Theory:
 803:.\Generated_Source\PSoC4/ADC.c ****     *  Care must be taken to not exceed the maximum value for a 31 bit signed
 804:.\Generated_Source\PSoC4/ADC.c ****     *  number in the conversion to uVolts and at the same time not loose
 805:.\Generated_Source\PSoC4/ADC.c ****     *  resolution.
 806:.\Generated_Source\PSoC4/ADC.c ****     *  To convert adcCounts to microVolts it is required to be multiplied
 807:.\Generated_Source\PSoC4/ADC.c ****     *  on 10 million and later divide on gain in counts per 10V.
 808:.\Generated_Source\PSoC4/ADC.c ****     *
 809:.\Generated_Source\PSoC4/ADC.c ****     *******************************************************************************/
 810:.\Generated_Source\PSoC4/ADC.c ****     int32 ADC_CountsTo_uVolts(uint32 chan, int16 adcCounts)
 811:.\Generated_Source\PSoC4/ADC.c ****     {
 785              		.loc 1 811 0
 786              		.cfi_startproc
 787              	.LVL56:
 788 0000 38B5     		push	{r3, r4, r5, lr}
 789              		.cfi_def_cfa_offset 16
 790              		.cfi_offset 3, -16
 791              		.cfi_offset 4, -12
 792              		.cfi_offset 5, -8
 793              		.cfi_offset 14, -4
 794 0002 051C     		mov	r5, r0
 795 0004 0C1C     		mov	r4, r1
 812:.\Generated_Source\PSoC4/ADC.c ****         int64 uVolts;
 813:.\Generated_Source\PSoC4/ADC.c **** 
 814:.\Generated_Source\PSoC4/ADC.c ****         /* Halt CPU in debug mode if channel is out of valid range */
 815:.\Generated_Source\PSoC4/ADC.c ****         CYASSERT(chan < ADC_TOTAL_CHANNELS_NUM);
 796              		.loc 1 815 0
 797 0006 0028     		cmp	r0, #0
 798 0008 02D0     		beq	.L68
 799              		.loc 1 815 0 is_stmt 0 discriminator 1
 800 000a 0020     		mov	r0, #0
 801              	.LVL57:
 802 000c FFF7FEFF 		bl	CyHalt
 803              	.LVL58:
 804              	.L68:
 816:.\Generated_Source\PSoC4/ADC.c **** 
 817:.\Generated_Source\PSoC4/ADC.c ****         /* Divide the adcCount when accumulate averaging mode selected */
 818:.\Generated_Source\PSoC4/ADC.c ****         #if(ADC_DEFAULT_AVG_MODE == ADC__ACCUMULATE)
 819:.\Generated_Source\PSoC4/ADC.c ****             if((ADC_channelsConfig[chan] & ADC_AVERAGING_EN) != 0u)
 820:.\Generated_Source\PSoC4/ADC.c ****             {
 821:.\Generated_Source\PSoC4/ADC.c ****                 adcCounts /= ADC_DEFAULT_AVG_SAMPLES_DIV;
 822:.\Generated_Source\PSoC4/ADC.c ****             }
 823:.\Generated_Source\PSoC4/ADC.c ****         #endif /* ADC_DEFAULT_AVG_MODE == ADC__ACCUMULATE */
 824:.\Generated_Source\PSoC4/ADC.c **** 
 825:.\Generated_Source\PSoC4/ADC.c ****         /* Subtract ADC offset */
 826:.\Generated_Source\PSoC4/ADC.c ****         adcCounts -= ADC_offset[chan];
 805              		.loc 1 826 0 is_stmt 1
 806 0010 6A00     		lsl	r2, r5, #1
 807 0012 084B     		ldr	r3, .L69
 808 0014 D05A     		ldrh	r0, [r2, r3]
 809 0016 201A     		sub	r0, r4, r0
 810 0018 00B2     		sxth	r0, r0
 811              	.LVL59:
 827:.\Generated_Source\PSoC4/ADC.c **** 
 828:.\Generated_Source\PSoC4/ADC.c ****         uVolts = ((int64)adcCounts * ADC_10UV_COUNTS) / ADC_countsPer10Volt[chan];
 812              		.loc 1 828 0
 813 001a C117     		asr	r1, r0, #31
ARM GAS  C:\DOCUME~1\Remixvit\LOCALS~1\Temp\ccVIFrYa.s 			page 30


 814 001c 064A     		ldr	r2, .L69+4
 815 001e 0023     		mov	r3, #0
 816 0020 FFF7FEFF 		bl	__aeabi_lmul
 817              	.LVL60:
 818 0024 AD00     		lsl	r5, r5, #2
 819              	.LVL61:
 820 0026 054B     		ldr	r3, .L69+8
 821 0028 EA58     		ldr	r2, [r5, r3]
 822 002a D317     		asr	r3, r2, #31
 823 002c FFF7FEFF 		bl	__aeabi_ldivmod
 824              	.LVL62:
 829:.\Generated_Source\PSoC4/ADC.c **** 
 830:.\Generated_Source\PSoC4/ADC.c ****         return( (int32)uVolts );
 831:.\Generated_Source\PSoC4/ADC.c ****     }
 825              		.loc 1 831 0
 826              		@ sp needed
 827 0030 38BD     		pop	{r3, r4, r5, pc}
 828              	.L70:
 829 0032 C046     		.align	2
 830              	.L69:
 831 0034 00000000 		.word	ADC_offset
 832 0038 80969800 		.word	10000000
 833 003c 00000000 		.word	ADC_countsPer10Volt
 834              		.cfi_endproc
 835              	.LFE16:
 836              		.size	ADC_CountsTo_uVolts, .-ADC_CountsTo_uVolts
 837              		.global	__aeabi_i2f
 838              		.global	__aeabi_fmul
 839              		.global	__aeabi_fdiv
 840              		.section	.text.ADC_CountsTo_Volts,"ax",%progbits
 841              		.align	2
 842              		.global	ADC_CountsTo_Volts
 843              		.code	16
 844              		.thumb_func
 845              		.type	ADC_CountsTo_Volts, %function
 846              	ADC_CountsTo_Volts:
 847              	.LFB17:
 832:.\Generated_Source\PSoC4/ADC.c **** 
 833:.\Generated_Source\PSoC4/ADC.c **** 
 834:.\Generated_Source\PSoC4/ADC.c ****     /*******************************************************************************
 835:.\Generated_Source\PSoC4/ADC.c ****     * Function Name: ADC_CountsTo_Volts
 836:.\Generated_Source\PSoC4/ADC.c ****     ********************************************************************************
 837:.\Generated_Source\PSoC4/ADC.c ****     *
 838:.\Generated_Source\PSoC4/ADC.c ****     * Summary:
 839:.\Generated_Source\PSoC4/ADC.c ****     *  Converts the ADC output to Volts as a floating point number.
 840:.\Generated_Source\PSoC4/ADC.c ****     *  This function is not available when left data format justification selected.
 841:.\Generated_Source\PSoC4/ADC.c ****     *
 842:.\Generated_Source\PSoC4/ADC.c ****     * Parameters:
 843:.\Generated_Source\PSoC4/ADC.c ****     *  chan: The ADC channel number.
 844:.\Generated_Source\PSoC4/ADC.c ****     *  Result from the ADC conversion
 845:.\Generated_Source\PSoC4/ADC.c ****     *
 846:.\Generated_Source\PSoC4/ADC.c ****     * Return:
 847:.\Generated_Source\PSoC4/ADC.c ****     *  Results in Volts
 848:.\Generated_Source\PSoC4/ADC.c ****     *
 849:.\Generated_Source\PSoC4/ADC.c ****     * Global variables:
 850:.\Generated_Source\PSoC4/ADC.c ****     *  ADC_countsPer10Volt:  used to convert ADC counts to Volts.
 851:.\Generated_Source\PSoC4/ADC.c ****     *  ADC_Offset:  Used as the offset while converting ADC counts
ARM GAS  C:\DOCUME~1\Remixvit\LOCALS~1\Temp\ccVIFrYa.s 			page 31


 852:.\Generated_Source\PSoC4/ADC.c ****     *   to mVolts.
 853:.\Generated_Source\PSoC4/ADC.c ****     *
 854:.\Generated_Source\PSoC4/ADC.c ****     *******************************************************************************/
 855:.\Generated_Source\PSoC4/ADC.c ****     float32 ADC_CountsTo_Volts(uint32 chan, int16 adcCounts)
 856:.\Generated_Source\PSoC4/ADC.c ****     {
 848              		.loc 1 856 0
 849              		.cfi_startproc
 850              	.LVL63:
 851 0000 38B5     		push	{r3, r4, r5, lr}
 852              		.cfi_def_cfa_offset 16
 853              		.cfi_offset 3, -16
 854              		.cfi_offset 4, -12
 855              		.cfi_offset 5, -8
 856              		.cfi_offset 14, -4
 857 0002 041C     		mov	r4, r0
 858 0004 0D1C     		mov	r5, r1
 857:.\Generated_Source\PSoC4/ADC.c ****         float32 volts;
 858:.\Generated_Source\PSoC4/ADC.c **** 
 859:.\Generated_Source\PSoC4/ADC.c ****         /* Halt CPU in debug mode if channel is out of valid range */
 860:.\Generated_Source\PSoC4/ADC.c ****         CYASSERT(chan < ADC_TOTAL_CHANNELS_NUM);
 859              		.loc 1 860 0
 860 0006 0028     		cmp	r0, #0
 861 0008 02D0     		beq	.L72
 862              		.loc 1 860 0 is_stmt 0 discriminator 1
 863 000a 0020     		mov	r0, #0
 864              	.LVL64:
 865 000c FFF7FEFF 		bl	CyHalt
 866              	.LVL65:
 867              	.L72:
 861:.\Generated_Source\PSoC4/ADC.c **** 
 862:.\Generated_Source\PSoC4/ADC.c ****         /* Divide the adcCount when accumulate averaging mode selected */
 863:.\Generated_Source\PSoC4/ADC.c ****         #if(ADC_DEFAULT_AVG_MODE == ADC__ACCUMULATE)
 864:.\Generated_Source\PSoC4/ADC.c ****             if((ADC_channelsConfig[chan] & ADC_AVERAGING_EN) != 0u)
 865:.\Generated_Source\PSoC4/ADC.c ****             {
 866:.\Generated_Source\PSoC4/ADC.c ****                 adcCounts /= ADC_DEFAULT_AVG_SAMPLES_DIV;
 867:.\Generated_Source\PSoC4/ADC.c ****             }
 868:.\Generated_Source\PSoC4/ADC.c ****         #endif /* ADC_DEFAULT_AVG_MODE == ADC__ACCUMULATE */
 869:.\Generated_Source\PSoC4/ADC.c **** 
 870:.\Generated_Source\PSoC4/ADC.c ****         /* Subtract ADC offset */
 871:.\Generated_Source\PSoC4/ADC.c ****         adcCounts -= ADC_offset[chan];
 868              		.loc 1 871 0 is_stmt 1
 869 0010 6200     		lsl	r2, r4, #1
 870 0012 0A4B     		ldr	r3, .L73
 871 0014 D05A     		ldrh	r0, [r2, r3]
 872 0016 281A     		sub	r0, r5, r0
 873 0018 00B2     		sxth	r0, r0
 874              	.LVL66:
 872:.\Generated_Source\PSoC4/ADC.c **** 
 873:.\Generated_Source\PSoC4/ADC.c ****         volts = ((float32)adcCounts * ADC_10V_COUNTS) / (float32)ADC_countsPer10Volt[chan];
 875              		.loc 1 873 0
 876 001a FFF7FEFF 		bl	__aeabi_i2f
 877              	.LVL67:
 878 001e 0849     		ldr	r1, .L73+4
 879 0020 FFF7FEFF 		bl	__aeabi_fmul
 880              	.LVL68:
 881 0024 051C     		add	r5, r0, #0
 882 0026 A400     		lsl	r4, r4, #2
ARM GAS  C:\DOCUME~1\Remixvit\LOCALS~1\Temp\ccVIFrYa.s 			page 32


 883              	.LVL69:
 884 0028 064B     		ldr	r3, .L73+8
 885 002a E058     		ldr	r0, [r4, r3]
 886 002c FFF7FEFF 		bl	__aeabi_i2f
 887              	.LVL70:
 888 0030 011C     		add	r1, r0, #0
 889 0032 281C     		add	r0, r5, #0
 890 0034 FFF7FEFF 		bl	__aeabi_fdiv
 891              	.LVL71:
 874:.\Generated_Source\PSoC4/ADC.c **** 
 875:.\Generated_Source\PSoC4/ADC.c ****         return( volts );
 876:.\Generated_Source\PSoC4/ADC.c ****     }
 892              		.loc 1 876 0
 893              		@ sp needed
 894 0038 38BD     		pop	{r3, r4, r5, pc}
 895              	.L74:
 896 003a C046     		.align	2
 897              	.L73:
 898 003c 00000000 		.word	ADC_offset
 899 0040 00002041 		.word	1092616192
 900 0044 00000000 		.word	ADC_countsPer10Volt
 901              		.cfi_endproc
 902              	.LFE17:
 903              		.size	ADC_CountsTo_Volts, .-ADC_CountsTo_Volts
 904              		.comm	ADC_countsPer10Volt,4,4
 905              		.comm	ADC_offset,2,4
 906              		.global	ADC_initVar
 907              		.bss
 908              		.set	.LANCHOR0,. + 0
 909              		.type	ADC_initVar, %object
 910              		.size	ADC_initVar, 1
 911              	ADC_initVar:
 912 0000 00       		.space	1
 913              		.text
 914              	.Letext0:
 915              		.file 2 ".\\Generated_Source\\PSoC4\\cytypes.h"
 916              		.file 3 ".\\Generated_Source\\PSoC4\\CyLib.h"