ARM GAS  C:\DOCUME~1\Remixvit\LOCALS~1\Temp\ccuAltBW.s 			page 1


   1              		.cpu cortex-m0
   2              		.fpu softvfp
   3              		.eabi_attribute 20, 1
   4              		.eabi_attribute 21, 1
   5              		.eabi_attribute 23, 3
   6              		.eabi_attribute 24, 1
   7              		.eabi_attribute 25, 1
   8              		.eabi_attribute 26, 1
   9              		.eabi_attribute 30, 1
  10              		.eabi_attribute 34, 0
  11              		.eabi_attribute 18, 4
  12              		.code	16
  13              		.file	"cyfitter_cfg.c"
  14              		.text
  15              	.Ltext0:
  16              		.cfi_sections	.debug_frame
  17              		.section	.text.cfg_write_bytes32,"ax",%progbits
  18              		.align	2
  19              		.code	16
  20              		.thumb_func
  21              		.type	cfg_write_bytes32, %function
  22              	cfg_write_bytes32:
  23              	.LFB3:
  24              		.file 1 ".\\Generated_Source\\PSoC4\\cyfitter_cfg.c"
   1:.\Generated_Source\PSoC4/cyfitter_cfg.c **** /*******************************************************************************
   2:.\Generated_Source\PSoC4/cyfitter_cfg.c **** * File Name: cyfitter_cfg.c
   3:.\Generated_Source\PSoC4/cyfitter_cfg.c **** * 
   4:.\Generated_Source\PSoC4/cyfitter_cfg.c **** * PSoC Creator  3.3 CP1
   5:.\Generated_Source\PSoC4/cyfitter_cfg.c **** *
   6:.\Generated_Source\PSoC4/cyfitter_cfg.c **** * Description:
   7:.\Generated_Source\PSoC4/cyfitter_cfg.c **** * This file contains device initialization code.
   8:.\Generated_Source\PSoC4/cyfitter_cfg.c **** * Except for the user defined sections in CyClockStartupError(), this file should not be modified.
   9:.\Generated_Source\PSoC4/cyfitter_cfg.c **** * This file is automatically generated by PSoC Creator.
  10:.\Generated_Source\PSoC4/cyfitter_cfg.c **** *
  11:.\Generated_Source\PSoC4/cyfitter_cfg.c **** ********************************************************************************
  12:.\Generated_Source\PSoC4/cyfitter_cfg.c **** * Copyright (c) 2007-2015 Cypress Semiconductor.  All rights reserved.
  13:.\Generated_Source\PSoC4/cyfitter_cfg.c **** * You may use this file only in accordance with the license, terms, conditions, 
  14:.\Generated_Source\PSoC4/cyfitter_cfg.c **** * disclaimers, and limitations in the end user license agreement accompanying 
  15:.\Generated_Source\PSoC4/cyfitter_cfg.c **** * the software package with which this file was provided.
  16:.\Generated_Source\PSoC4/cyfitter_cfg.c **** ********************************************************************************/
  17:.\Generated_Source\PSoC4/cyfitter_cfg.c **** 
  18:.\Generated_Source\PSoC4/cyfitter_cfg.c **** #include <string.h>
  19:.\Generated_Source\PSoC4/cyfitter_cfg.c **** #include "cytypes.h"
  20:.\Generated_Source\PSoC4/cyfitter_cfg.c **** #include "cydevice_trm.h"
  21:.\Generated_Source\PSoC4/cyfitter_cfg.c **** #include "cyfitter.h"
  22:.\Generated_Source\PSoC4/cyfitter_cfg.c **** #include "CyLib.h"
  23:.\Generated_Source\PSoC4/cyfitter_cfg.c **** #include "CyLFClk.h"
  24:.\Generated_Source\PSoC4/cyfitter_cfg.c **** #include "cyfitter_cfg.h"
  25:.\Generated_Source\PSoC4/cyfitter_cfg.c **** 
  26:.\Generated_Source\PSoC4/cyfitter_cfg.c **** 
  27:.\Generated_Source\PSoC4/cyfitter_cfg.c **** #if defined(__GNUC__) || defined(__ARMCC_VERSION)
  28:.\Generated_Source\PSoC4/cyfitter_cfg.c ****     #define CYPACKED 
  29:.\Generated_Source\PSoC4/cyfitter_cfg.c ****     #define CYPACKED_ATTR __attribute__ ((packed))
  30:.\Generated_Source\PSoC4/cyfitter_cfg.c ****     #define CYALIGNED __attribute__ ((aligned))
  31:.\Generated_Source\PSoC4/cyfitter_cfg.c ****     #define CY_CFG_UNUSED __attribute__ ((unused))
  32:.\Generated_Source\PSoC4/cyfitter_cfg.c ****     #define CY_CFG_SECTION __attribute__ ((section(".psocinit")))
  33:.\Generated_Source\PSoC4/cyfitter_cfg.c ****     
ARM GAS  C:\DOCUME~1\Remixvit\LOCALS~1\Temp\ccuAltBW.s 			page 2


  34:.\Generated_Source\PSoC4/cyfitter_cfg.c ****     #if defined(__ARMCC_VERSION)
  35:.\Generated_Source\PSoC4/cyfitter_cfg.c ****         #define CY_CFG_MEMORY_BARRIER() __memory_changed()
  36:.\Generated_Source\PSoC4/cyfitter_cfg.c ****     #else
  37:.\Generated_Source\PSoC4/cyfitter_cfg.c ****         #define CY_CFG_MEMORY_BARRIER() __sync_synchronize()
  38:.\Generated_Source\PSoC4/cyfitter_cfg.c ****     #endif
  39:.\Generated_Source\PSoC4/cyfitter_cfg.c ****     
  40:.\Generated_Source\PSoC4/cyfitter_cfg.c **** #elif defined(__ICCARM__)
  41:.\Generated_Source\PSoC4/cyfitter_cfg.c ****     #include <intrinsics.h>
  42:.\Generated_Source\PSoC4/cyfitter_cfg.c **** 
  43:.\Generated_Source\PSoC4/cyfitter_cfg.c ****     #define CYPACKED __packed
  44:.\Generated_Source\PSoC4/cyfitter_cfg.c ****     #define CYPACKED_ATTR 
  45:.\Generated_Source\PSoC4/cyfitter_cfg.c ****     #define CYALIGNED _Pragma("data_alignment=4")
  46:.\Generated_Source\PSoC4/cyfitter_cfg.c ****     #define CY_CFG_UNUSED _Pragma("diag_suppress=Pe177")
  47:.\Generated_Source\PSoC4/cyfitter_cfg.c ****     #define CY_CFG_SECTION _Pragma("location=\".psocinit\"")
  48:.\Generated_Source\PSoC4/cyfitter_cfg.c ****     
  49:.\Generated_Source\PSoC4/cyfitter_cfg.c ****     #define CY_CFG_MEMORY_BARRIER() __DMB()
  50:.\Generated_Source\PSoC4/cyfitter_cfg.c ****     
  51:.\Generated_Source\PSoC4/cyfitter_cfg.c **** #else
  52:.\Generated_Source\PSoC4/cyfitter_cfg.c ****     #error Unsupported toolchain
  53:.\Generated_Source\PSoC4/cyfitter_cfg.c **** #endif
  54:.\Generated_Source\PSoC4/cyfitter_cfg.c **** 
  55:.\Generated_Source\PSoC4/cyfitter_cfg.c **** 
  56:.\Generated_Source\PSoC4/cyfitter_cfg.c **** CY_CFG_UNUSED
  57:.\Generated_Source\PSoC4/cyfitter_cfg.c **** static void CYMEMZERO(void *s, size_t n);
  58:.\Generated_Source\PSoC4/cyfitter_cfg.c **** CY_CFG_UNUSED
  59:.\Generated_Source\PSoC4/cyfitter_cfg.c **** static void CYMEMZERO(void *s, size_t n)
  60:.\Generated_Source\PSoC4/cyfitter_cfg.c **** {
  61:.\Generated_Source\PSoC4/cyfitter_cfg.c **** 	(void)memset(s, 0, n);
  62:.\Generated_Source\PSoC4/cyfitter_cfg.c **** }
  63:.\Generated_Source\PSoC4/cyfitter_cfg.c **** CY_CFG_UNUSED
  64:.\Generated_Source\PSoC4/cyfitter_cfg.c **** static void CYCONFIGCPY(void *dest, const void *src, size_t n);
  65:.\Generated_Source\PSoC4/cyfitter_cfg.c **** CY_CFG_UNUSED
  66:.\Generated_Source\PSoC4/cyfitter_cfg.c **** static void CYCONFIGCPY(void *dest, const void *src, size_t n)
  67:.\Generated_Source\PSoC4/cyfitter_cfg.c **** {
  68:.\Generated_Source\PSoC4/cyfitter_cfg.c **** 	(void)memcpy(dest, src, n);
  69:.\Generated_Source\PSoC4/cyfitter_cfg.c **** }
  70:.\Generated_Source\PSoC4/cyfitter_cfg.c **** CY_CFG_UNUSED
  71:.\Generated_Source\PSoC4/cyfitter_cfg.c **** static void CYCONFIGCPYCODE(void *dest, const void *src, size_t n);
  72:.\Generated_Source\PSoC4/cyfitter_cfg.c **** CY_CFG_UNUSED
  73:.\Generated_Source\PSoC4/cyfitter_cfg.c **** static void CYCONFIGCPYCODE(void *dest, const void *src, size_t n)
  74:.\Generated_Source\PSoC4/cyfitter_cfg.c **** {
  75:.\Generated_Source\PSoC4/cyfitter_cfg.c **** 	(void)memcpy(dest, src, n);
  76:.\Generated_Source\PSoC4/cyfitter_cfg.c **** }
  77:.\Generated_Source\PSoC4/cyfitter_cfg.c **** 
  78:.\Generated_Source\PSoC4/cyfitter_cfg.c **** 
  79:.\Generated_Source\PSoC4/cyfitter_cfg.c **** 
  80:.\Generated_Source\PSoC4/cyfitter_cfg.c **** /* Clock startup error codes                                                   */
  81:.\Generated_Source\PSoC4/cyfitter_cfg.c **** #define CYCLOCKSTART_NO_ERROR    0u
  82:.\Generated_Source\PSoC4/cyfitter_cfg.c **** #define CYCLOCKSTART_XTAL_ERROR  1u
  83:.\Generated_Source\PSoC4/cyfitter_cfg.c **** #define CYCLOCKSTART_32KHZ_ERROR 2u
  84:.\Generated_Source\PSoC4/cyfitter_cfg.c **** #define CYCLOCKSTART_PLL_ERROR   3u
  85:.\Generated_Source\PSoC4/cyfitter_cfg.c **** 
  86:.\Generated_Source\PSoC4/cyfitter_cfg.c **** #ifdef CY_NEED_CYCLOCKSTARTUPERROR
  87:.\Generated_Source\PSoC4/cyfitter_cfg.c **** /*******************************************************************************
  88:.\Generated_Source\PSoC4/cyfitter_cfg.c **** * Function Name: CyClockStartupError
  89:.\Generated_Source\PSoC4/cyfitter_cfg.c **** ********************************************************************************
  90:.\Generated_Source\PSoC4/cyfitter_cfg.c **** * Summary:
ARM GAS  C:\DOCUME~1\Remixvit\LOCALS~1\Temp\ccuAltBW.s 			page 3


  91:.\Generated_Source\PSoC4/cyfitter_cfg.c **** *  If an error is encountered during clock configuration (crystal startup error,
  92:.\Generated_Source\PSoC4/cyfitter_cfg.c **** *  PLL lock error, etc.), the system will end up here.  Unless reimplemented by
  93:.\Generated_Source\PSoC4/cyfitter_cfg.c **** *  the customer, this function will stop in an infinite loop.
  94:.\Generated_Source\PSoC4/cyfitter_cfg.c **** *
  95:.\Generated_Source\PSoC4/cyfitter_cfg.c **** * Parameters:
  96:.\Generated_Source\PSoC4/cyfitter_cfg.c **** *   void
  97:.\Generated_Source\PSoC4/cyfitter_cfg.c **** *
  98:.\Generated_Source\PSoC4/cyfitter_cfg.c **** * Return:
  99:.\Generated_Source\PSoC4/cyfitter_cfg.c **** *   void
 100:.\Generated_Source\PSoC4/cyfitter_cfg.c **** *
 101:.\Generated_Source\PSoC4/cyfitter_cfg.c **** *******************************************************************************/
 102:.\Generated_Source\PSoC4/cyfitter_cfg.c **** CY_CFG_UNUSED
 103:.\Generated_Source\PSoC4/cyfitter_cfg.c **** static void CyClockStartupError(uint8 errorCode);
 104:.\Generated_Source\PSoC4/cyfitter_cfg.c **** CY_CFG_UNUSED
 105:.\Generated_Source\PSoC4/cyfitter_cfg.c **** static void CyClockStartupError(uint8 errorCode)
 106:.\Generated_Source\PSoC4/cyfitter_cfg.c **** {
 107:.\Generated_Source\PSoC4/cyfitter_cfg.c ****     /* To remove the compiler warning if errorCode not used.                */
 108:.\Generated_Source\PSoC4/cyfitter_cfg.c ****     errorCode = errorCode;
 109:.\Generated_Source\PSoC4/cyfitter_cfg.c **** 
 110:.\Generated_Source\PSoC4/cyfitter_cfg.c ****     /* `#START CyClockStartupError` */
 111:.\Generated_Source\PSoC4/cyfitter_cfg.c **** 
 112:.\Generated_Source\PSoC4/cyfitter_cfg.c ****     /* If we have a clock startup error (bad MHz crystal, PLL lock, etc.),  */
 113:.\Generated_Source\PSoC4/cyfitter_cfg.c ****     /* we will end up here to allow the customer to implement something to  */
 114:.\Generated_Source\PSoC4/cyfitter_cfg.c ****     /* deal with the clock condition.                                       */
 115:.\Generated_Source\PSoC4/cyfitter_cfg.c **** 
 116:.\Generated_Source\PSoC4/cyfitter_cfg.c ****     /* `#END` */
 117:.\Generated_Source\PSoC4/cyfitter_cfg.c **** 
 118:.\Generated_Source\PSoC4/cyfitter_cfg.c ****     /* If nothing else, stop here since the clocks have not started         */
 119:.\Generated_Source\PSoC4/cyfitter_cfg.c ****     /* correctly.                                                           */
 120:.\Generated_Source\PSoC4/cyfitter_cfg.c ****     while(1) {}
 121:.\Generated_Source\PSoC4/cyfitter_cfg.c **** }
 122:.\Generated_Source\PSoC4/cyfitter_cfg.c **** #endif
 123:.\Generated_Source\PSoC4/cyfitter_cfg.c **** 
 124:.\Generated_Source\PSoC4/cyfitter_cfg.c **** #define CY_CFG_BASE_ADDR_COUNT 7u
 125:.\Generated_Source\PSoC4/cyfitter_cfg.c **** CYPACKED typedef struct
 126:.\Generated_Source\PSoC4/cyfitter_cfg.c **** {
 127:.\Generated_Source\PSoC4/cyfitter_cfg.c **** 	uint8 offset;
 128:.\Generated_Source\PSoC4/cyfitter_cfg.c **** 	uint8 value;
 129:.\Generated_Source\PSoC4/cyfitter_cfg.c **** } CYPACKED_ATTR cy_cfg_addrvalue_t;
 130:.\Generated_Source\PSoC4/cyfitter_cfg.c **** 
 131:.\Generated_Source\PSoC4/cyfitter_cfg.c **** 
 132:.\Generated_Source\PSoC4/cyfitter_cfg.c **** 
 133:.\Generated_Source\PSoC4/cyfitter_cfg.c **** /*******************************************************************************
 134:.\Generated_Source\PSoC4/cyfitter_cfg.c **** * Function Name: cfg_write_bytes32
 135:.\Generated_Source\PSoC4/cyfitter_cfg.c **** ********************************************************************************
 136:.\Generated_Source\PSoC4/cyfitter_cfg.c **** * Summary:
 137:.\Generated_Source\PSoC4/cyfitter_cfg.c **** *  This function is used for setting up the chip configuration areas that
 138:.\Generated_Source\PSoC4/cyfitter_cfg.c **** *  contain relatively sparse data.
 139:.\Generated_Source\PSoC4/cyfitter_cfg.c **** *
 140:.\Generated_Source\PSoC4/cyfitter_cfg.c **** * Parameters:
 141:.\Generated_Source\PSoC4/cyfitter_cfg.c **** *   void
 142:.\Generated_Source\PSoC4/cyfitter_cfg.c **** *
 143:.\Generated_Source\PSoC4/cyfitter_cfg.c **** * Return:
 144:.\Generated_Source\PSoC4/cyfitter_cfg.c **** *   void
 145:.\Generated_Source\PSoC4/cyfitter_cfg.c **** *
 146:.\Generated_Source\PSoC4/cyfitter_cfg.c **** *******************************************************************************/
 147:.\Generated_Source\PSoC4/cyfitter_cfg.c **** static void cfg_write_bytes32(const uint32 addr_table[], const cy_cfg_addrvalue_t data_table[]);
ARM GAS  C:\DOCUME~1\Remixvit\LOCALS~1\Temp\ccuAltBW.s 			page 4


 148:.\Generated_Source\PSoC4/cyfitter_cfg.c **** static void cfg_write_bytes32(const uint32 addr_table[], const cy_cfg_addrvalue_t data_table[])
 149:.\Generated_Source\PSoC4/cyfitter_cfg.c **** {
  25              		.loc 1 149 0
  26              		.cfi_startproc
  27              	.LVL0:
  28 0000 F0B5     		push	{r4, r5, r6, r7, lr}
  29              		.cfi_def_cfa_offset 20
  30              		.cfi_offset 4, -20
  31              		.cfi_offset 5, -16
  32              		.cfi_offset 6, -12
  33              		.cfi_offset 7, -8
  34              		.cfi_offset 14, -4
  35              	.LVL1:
 150:.\Generated_Source\PSoC4/cyfitter_cfg.c **** 	/* For 32-bit little-endian architectures */
 151:.\Generated_Source\PSoC4/cyfitter_cfg.c **** 	uint32 i, j = 0u;
  36              		.loc 1 151 0
  37 0002 0025     		mov	r5, #0
 152:.\Generated_Source\PSoC4/cyfitter_cfg.c **** 	for (i = 0u; i < CY_CFG_BASE_ADDR_COUNT; i++)
  38              		.loc 1 152 0
  39 0004 0027     		mov	r7, #0
  40 0006 11E0     		b	.L2
  41              	.LVL2:
  42              	.L5:
  43              	.LBB2:
 153:.\Generated_Source\PSoC4/cyfitter_cfg.c **** 	{
 154:.\Generated_Source\PSoC4/cyfitter_cfg.c **** 		uint32 baseAddr = addr_table[i];
  44              		.loc 1 154 0
  45 0008 BB00     		lsl	r3, r7, #2
  46 000a C658     		ldr	r6, [r0, r3]
  47              	.LVL3:
 155:.\Generated_Source\PSoC4/cyfitter_cfg.c **** 		uint8 count = (uint8)baseAddr;
  48              		.loc 1 155 0
  49 000c F3B2     		uxtb	r3, r6
  50              	.LVL4:
 156:.\Generated_Source\PSoC4/cyfitter_cfg.c **** 		baseAddr &= 0xFFFFFF00u;
  51              		.loc 1 156 0
  52 000e FF22     		mov	r2, #255
  53 0010 9643     		bic	r6, r2
  54              	.LVL5:
 157:.\Generated_Source\PSoC4/cyfitter_cfg.c **** 		while (count != 0u)
  55              		.loc 1 157 0
  56 0012 08E0     		b	.L3
  57              	.L4:
 158:.\Generated_Source\PSoC4/cyfitter_cfg.c **** 		{
 159:.\Generated_Source\PSoC4/cyfitter_cfg.c **** 			CY_SET_XTND_REG8((void CYFAR *)(baseAddr + data_table[j].offset), data_table[j].value);
  58              		.loc 1 159 0
  59 0014 6A00     		lsl	r2, r5, #1
  60 0016 8A18     		add	r2, r1, r2
  61 0018 1478     		ldrb	r4, [r2]
  62 001a A419     		add	r4, r4, r6
  63 001c 5278     		ldrb	r2, [r2, #1]
  64 001e 2270     		strb	r2, [r4]
 160:.\Generated_Source\PSoC4/cyfitter_cfg.c **** 			j++;
  65              		.loc 1 160 0
  66 0020 0135     		add	r5, r5, #1
  67              	.LVL6:
 161:.\Generated_Source\PSoC4/cyfitter_cfg.c **** 			count--;
ARM GAS  C:\DOCUME~1\Remixvit\LOCALS~1\Temp\ccuAltBW.s 			page 5


  68              		.loc 1 161 0
  69 0022 013B     		sub	r3, r3, #1
  70              	.LVL7:
  71 0024 DBB2     		uxtb	r3, r3
  72              	.LVL8:
  73              	.L3:
 157:.\Generated_Source\PSoC4/cyfitter_cfg.c **** 		{
  74              		.loc 1 157 0
  75 0026 002B     		cmp	r3, #0
  76 0028 F4D1     		bne	.L4
  77              	.LBE2:
 152:.\Generated_Source\PSoC4/cyfitter_cfg.c **** 	{
  78              		.loc 1 152 0 discriminator 2
  79 002a 0137     		add	r7, r7, #1
  80              	.LVL9:
  81              	.L2:
 152:.\Generated_Source\PSoC4/cyfitter_cfg.c **** 	{
  82              		.loc 1 152 0 is_stmt 0 discriminator 1
  83 002c 062F     		cmp	r7, #6
  84 002e EBD9     		bls	.L5
 162:.\Generated_Source\PSoC4/cyfitter_cfg.c **** 		}
 163:.\Generated_Source\PSoC4/cyfitter_cfg.c **** 	}
 164:.\Generated_Source\PSoC4/cyfitter_cfg.c **** }
  85              		.loc 1 164 0 is_stmt 1
  86              		@ sp needed
  87              	.LVL10:
  88              	.LVL11:
  89 0030 F0BD     		pop	{r4, r5, r6, r7, pc}
  90              		.cfi_endproc
  91              	.LFE3:
  92              		.size	cfg_write_bytes32, .-cfg_write_bytes32
  93 0032 C046     		.section	.text.CYMEMZERO,"ax",%progbits
  94              		.align	2
  95              		.code	16
  96              		.thumb_func
  97              		.type	CYMEMZERO, %function
  98              	CYMEMZERO:
  99              	.LFB0:
  60:.\Generated_Source\PSoC4/cyfitter_cfg.c **** 	(void)memset(s, 0, n);
 100              		.loc 1 60 0
 101              		.cfi_startproc
 102              	.LVL12:
 103 0000 08B5     		push	{r3, lr}
 104              		.cfi_def_cfa_offset 8
 105              		.cfi_offset 3, -8
 106              		.cfi_offset 14, -4
 107 0002 0A1C     		mov	r2, r1
  61:.\Generated_Source\PSoC4/cyfitter_cfg.c **** }
 108              		.loc 1 61 0
 109 0004 0021     		mov	r1, #0
 110              	.LVL13:
 111 0006 FFF7FEFF 		bl	memset
 112              	.LVL14:
  62:.\Generated_Source\PSoC4/cyfitter_cfg.c **** CY_CFG_UNUSED
 113              		.loc 1 62 0
 114              		@ sp needed
 115 000a 08BD     		pop	{r3, pc}
ARM GAS  C:\DOCUME~1\Remixvit\LOCALS~1\Temp\ccuAltBW.s 			page 6


 116              		.cfi_endproc
 117              	.LFE0:
 118              		.size	CYMEMZERO, .-CYMEMZERO
 119              		.section	.psocinit,"ax",%progbits
 120              		.align	2
 121              		.code	16
 122              		.thumb_func
 123              		.type	ClockSetup, %function
 124              	ClockSetup:
 125              	.LFB4:
 165:.\Generated_Source\PSoC4/cyfitter_cfg.c **** 
 166:.\Generated_Source\PSoC4/cyfitter_cfg.c **** 
 167:.\Generated_Source\PSoC4/cyfitter_cfg.c **** /*******************************************************************************
 168:.\Generated_Source\PSoC4/cyfitter_cfg.c **** * Function Name: ClockSetup
 169:.\Generated_Source\PSoC4/cyfitter_cfg.c **** ********************************************************************************
 170:.\Generated_Source\PSoC4/cyfitter_cfg.c **** *
 171:.\Generated_Source\PSoC4/cyfitter_cfg.c **** * Summary:
 172:.\Generated_Source\PSoC4/cyfitter_cfg.c **** *   Performs the initialization of all of the clocks in the device based on the
 173:.\Generated_Source\PSoC4/cyfitter_cfg.c **** *   settings in the Clock tab of the DWR.  This includes enabling the requested
 174:.\Generated_Source\PSoC4/cyfitter_cfg.c **** *   clocks and setting the necessary dividers to produce the desired frequency. 
 175:.\Generated_Source\PSoC4/cyfitter_cfg.c **** *
 176:.\Generated_Source\PSoC4/cyfitter_cfg.c **** * Parameters:
 177:.\Generated_Source\PSoC4/cyfitter_cfg.c **** *   void
 178:.\Generated_Source\PSoC4/cyfitter_cfg.c **** *
 179:.\Generated_Source\PSoC4/cyfitter_cfg.c **** * Return:
 180:.\Generated_Source\PSoC4/cyfitter_cfg.c **** *   void
 181:.\Generated_Source\PSoC4/cyfitter_cfg.c **** *
 182:.\Generated_Source\PSoC4/cyfitter_cfg.c **** *******************************************************************************/
 183:.\Generated_Source\PSoC4/cyfitter_cfg.c **** static void ClockSetup(void);
 184:.\Generated_Source\PSoC4/cyfitter_cfg.c **** CY_CFG_SECTION
 185:.\Generated_Source\PSoC4/cyfitter_cfg.c **** static void ClockSetup(void)
 186:.\Generated_Source\PSoC4/cyfitter_cfg.c **** {
 126              		.loc 1 186 0
 127              		.cfi_startproc
 128 0000 10B5     		push	{r4, lr}
 129              		.cfi_def_cfa_offset 8
 130              		.cfi_offset 4, -8
 131              		.cfi_offset 14, -4
 187:.\Generated_Source\PSoC4/cyfitter_cfg.c **** 	/* Enable HALF_EN before trimming for the flash accelerator. */
 188:.\Generated_Source\PSoC4/cyfitter_cfg.c **** 	CY_SET_REG32((void CYXDATA *)(CYREG_CLK_SELECT), (CY_GET_REG32((void *)CYREG_CLK_SELECT) | 0x00040
 132              		.loc 1 188 0
 133 0002 1B4C     		ldr	r4, .L8
 134 0004 2368     		ldr	r3, [r4]
 135 0006 8022     		mov	r2, #128
 136 0008 D202     		lsl	r2, r2, #11
 137 000a 1343     		orr	r3, r2
 138 000c 2360     		str	r3, [r4]
 189:.\Generated_Source\PSoC4/cyfitter_cfg.c **** 
 190:.\Generated_Source\PSoC4/cyfitter_cfg.c **** 	/* Setup and trim IMO based on desired frequency. */
 191:.\Generated_Source\PSoC4/cyfitter_cfg.c **** 	CySysClkWriteImoFreq(24u);
 139              		.loc 1 191 0
 140 000e 1820     		mov	r0, #24
 141 0010 FFF7FEFF 		bl	CySysClkWriteImoFreq
 142              	.LVL15:
 192:.\Generated_Source\PSoC4/cyfitter_cfg.c **** 
 193:.\Generated_Source\PSoC4/cyfitter_cfg.c **** 	/* Disable HALF_EN since it is not required at this IMO frequency. */
 194:.\Generated_Source\PSoC4/cyfitter_cfg.c **** 	CY_SET_REG32((void CYXDATA *)(CYREG_CLK_SELECT), (CY_GET_REG32((void *)CYREG_CLK_SELECT) & 0xFFFBF
ARM GAS  C:\DOCUME~1\Remixvit\LOCALS~1\Temp\ccuAltBW.s 			page 7


 143              		.loc 1 194 0
 144 0014 2268     		ldr	r2, [r4]
 145 0016 174B     		ldr	r3, .L8+4
 146 0018 1340     		and	r3, r2
 147 001a 2360     		str	r3, [r4]
 195:.\Generated_Source\PSoC4/cyfitter_cfg.c **** 	/* CYDEV_CLK_ILO_CONFIG Starting address: CYDEV_CLK_ILO_CONFIG */
 196:.\Generated_Source\PSoC4/cyfitter_cfg.c **** 	CY_SET_XTND_REG32((void CYFAR *)(CYREG_CLK_ILO_CONFIG), 0x80000006u);
 148              		.loc 1 196 0
 149 001c 164A     		ldr	r2, .L8+8
 150 001e 174B     		ldr	r3, .L8+12
 151 0020 1A60     		str	r2, [r3]
 197:.\Generated_Source\PSoC4/cyfitter_cfg.c **** 
 198:.\Generated_Source\PSoC4/cyfitter_cfg.c **** 
 199:.\Generated_Source\PSoC4/cyfitter_cfg.c **** 	/* CYDEV_CLK_SELECT00 Starting address: CYDEV_CLK_SELECT00 */
 200:.\Generated_Source\PSoC4/cyfitter_cfg.c **** 	CY_SET_XTND_REG32((void CYFAR *)(CYREG_CLK_SELECT02), 0x00000011u);
 152              		.loc 1 200 0
 153 0022 1122     		mov	r2, #17
 154 0024 164B     		ldr	r3, .L8+16
 155 0026 1A60     		str	r2, [r3]
 201:.\Generated_Source\PSoC4/cyfitter_cfg.c **** 	CY_SET_XTND_REG32((void CYFAR *)(CYREG_CLK_SELECT03), 0x00000030u);
 156              		.loc 1 201 0
 157 0028 1F32     		add	r2, r2, #31
 158 002a 164B     		ldr	r3, .L8+20
 159 002c 1A60     		str	r2, [r3]
 202:.\Generated_Source\PSoC4/cyfitter_cfg.c **** 	CY_SET_XTND_REG32((void CYFAR *)(CYREG_CLK_SELECT07), 0x00000020u);
 160              		.loc 1 202 0
 161 002e 103A     		sub	r2, r2, #16
 162 0030 154B     		ldr	r3, .L8+24
 163 0032 1A60     		str	r2, [r3]
 203:.\Generated_Source\PSoC4/cyfitter_cfg.c **** 	CY_SET_XTND_REG32((void CYFAR *)(CYREG_CLK_SELECT12), 0x00000010u);
 164              		.loc 1 203 0
 165 0034 103A     		sub	r2, r2, #16
 166 0036 154B     		ldr	r3, .L8+28
 167 0038 1A60     		str	r2, [r3]
 204:.\Generated_Source\PSoC4/cyfitter_cfg.c **** 
 205:.\Generated_Source\PSoC4/cyfitter_cfg.c **** 	/* CYDEV_CLK_IMO_CONFIG Starting address: CYDEV_CLK_IMO_CONFIG */
 206:.\Generated_Source\PSoC4/cyfitter_cfg.c **** 	CY_SET_XTND_REG32((void CYFAR *)(CYREG_CLK_IMO_CONFIG), 0x82000000u);
 168              		.loc 1 206 0
 169 003a 8222     		mov	r2, #130
 170 003c 1206     		lsl	r2, r2, #24
 171 003e 144B     		ldr	r3, .L8+32
 172 0040 1A60     		str	r2, [r3]
 207:.\Generated_Source\PSoC4/cyfitter_cfg.c **** 
 208:.\Generated_Source\PSoC4/cyfitter_cfg.c **** 	/* CYDEV_CLK_DIVIDER_A00 Starting address: CYDEV_CLK_DIVIDER_A00 */
 209:.\Generated_Source\PSoC4/cyfitter_cfg.c **** 	CY_SET_XTND_REG32((void CYFAR *)(CYREG_CLK_DIVIDER_A00), 0x80000001u);
 173              		.loc 1 209 0
 174 0042 144A     		ldr	r2, .L8+36
 175 0044 144B     		ldr	r3, .L8+40
 176 0046 1A60     		str	r2, [r3]
 210:.\Generated_Source\PSoC4/cyfitter_cfg.c **** 
 211:.\Generated_Source\PSoC4/cyfitter_cfg.c **** 	/* CYDEV_CLK_DIVIDER_B00 Starting address: CYDEV_CLK_DIVIDER_B00 */
 212:.\Generated_Source\PSoC4/cyfitter_cfg.c **** 	CY_SET_XTND_REG32((void CYFAR *)(CYREG_CLK_DIVIDER_B00), 0x80000005u);
 177              		.loc 1 212 0
 178 0048 144A     		ldr	r2, .L8+44
 179 004a 154B     		ldr	r3, .L8+48
 180 004c 1A60     		str	r2, [r3]
 213:.\Generated_Source\PSoC4/cyfitter_cfg.c **** 
ARM GAS  C:\DOCUME~1\Remixvit\LOCALS~1\Temp\ccuAltBW.s 			page 8


 214:.\Generated_Source\PSoC4/cyfitter_cfg.c **** 	/* CYDEV_CLK_DIVIDER_C00 Starting address: CYDEV_CLK_DIVIDER_C00 */
 215:.\Generated_Source\PSoC4/cyfitter_cfg.c **** 	CY_SET_XTND_REG32((void CYFAR *)(CYREG_CLK_DIVIDER_C00), 0x8000000Eu);
 181              		.loc 1 215 0
 182 004e 154A     		ldr	r2, .L8+52
 183 0050 154B     		ldr	r3, .L8+56
 184 0052 1A60     		str	r2, [r3]
 216:.\Generated_Source\PSoC4/cyfitter_cfg.c **** 
 217:.\Generated_Source\PSoC4/cyfitter_cfg.c **** 	/* CYDEV_CLK_DIVIDER_A01 Starting address: CYDEV_CLK_DIVIDER_A01 */
 218:.\Generated_Source\PSoC4/cyfitter_cfg.c **** 	CY_SET_XTND_REG32((void CYFAR *)(CYREG_CLK_DIVIDER_A01), 0x80000010u);
 185              		.loc 1 218 0
 186 0054 154A     		ldr	r2, .L8+60
 187 0056 164B     		ldr	r3, .L8+64
 188 0058 1A60     		str	r2, [r3]
 219:.\Generated_Source\PSoC4/cyfitter_cfg.c **** 
 220:.\Generated_Source\PSoC4/cyfitter_cfg.c **** 	(void)CyIntSetVector(9u, &CySysWdtIsr);
 189              		.loc 1 220 0
 190 005a 0920     		mov	r0, #9
 191 005c 1549     		ldr	r1, .L8+68
 192 005e FFF7FEFF 		bl	CyIntSetVector
 193              	.LVL16:
 221:.\Generated_Source\PSoC4/cyfitter_cfg.c **** 	CyIntEnable(9u);
 194              		.loc 1 221 0
 195 0062 0920     		mov	r0, #9
 196 0064 FFF7FEFF 		bl	CyIntEnable
 197              	.LVL17:
 222:.\Generated_Source\PSoC4/cyfitter_cfg.c **** 	CY_SET_XTND_REG32((void CYFAR *)(CYREG_WDT_CONFIG), 0x00000000u);
 198              		.loc 1 222 0
 199 0068 0022     		mov	r2, #0
 200 006a 134B     		ldr	r3, .L8+72
 201 006c 1A60     		str	r2, [r3]
 223:.\Generated_Source\PSoC4/cyfitter_cfg.c **** }
 202              		.loc 1 223 0
 203              		@ sp needed
 204 006e 10BD     		pop	{r4, pc}
 205              	.L9:
 206              		.align	2
 207              	.L8:
 208 0070 00010B40 		.word	1074462976
 209 0074 FFFFFBFF 		.word	-262145
 210 0078 06000080 		.word	-2147483642
 211 007c 04010B40 		.word	1074462980
 212 0080 08020240 		.word	1073873416
 213 0084 0C020240 		.word	1073873420
 214 0088 1C020240 		.word	1073873436
 215 008c 30020240 		.word	1073873456
 216 0090 08010B40 		.word	1074462984
 217 0094 01000080 		.word	-2147483647
 218 0098 00000240 		.word	1073872896
 219 009c 05000080 		.word	-2147483643
 220 00a0 40000240 		.word	1073872960
 221 00a4 0E000080 		.word	-2147483634
 222 00a8 80000240 		.word	1073873024
 223 00ac 10000080 		.word	-2147483632
 224 00b0 04000240 		.word	1073872900
 225 00b4 00000000 		.word	CySysWdtIsr
 226 00b8 0C020B40 		.word	1074463244
 227              		.cfi_endproc
ARM GAS  C:\DOCUME~1\Remixvit\LOCALS~1\Temp\ccuAltBW.s 			page 9


 228              	.LFE4:
 229              		.size	ClockSetup, .-ClockSetup
 230              		.section	.text.SetAnalogRoutingPumps,"ax",%progbits
 231              		.align	2
 232              		.global	SetAnalogRoutingPumps
 233              		.code	16
 234              		.thumb_func
 235              		.type	SetAnalogRoutingPumps, %function
 236              	SetAnalogRoutingPumps:
 237              	.LFB6:
 224:.\Generated_Source\PSoC4/cyfitter_cfg.c **** 
 225:.\Generated_Source\PSoC4/cyfitter_cfg.c **** 
 226:.\Generated_Source\PSoC4/cyfitter_cfg.c **** /* Analog API Functions */
 227:.\Generated_Source\PSoC4/cyfitter_cfg.c **** 
 228:.\Generated_Source\PSoC4/cyfitter_cfg.c **** 
 229:.\Generated_Source\PSoC4/cyfitter_cfg.c **** /*******************************************************************************
 230:.\Generated_Source\PSoC4/cyfitter_cfg.c **** * Function Name: AnalogSetDefault
 231:.\Generated_Source\PSoC4/cyfitter_cfg.c **** ********************************************************************************
 232:.\Generated_Source\PSoC4/cyfitter_cfg.c **** *
 233:.\Generated_Source\PSoC4/cyfitter_cfg.c **** * Summary:
 234:.\Generated_Source\PSoC4/cyfitter_cfg.c **** *  Sets up the analog portions of the chip to default values based on chip
 235:.\Generated_Source\PSoC4/cyfitter_cfg.c **** *  configuration options from the project.
 236:.\Generated_Source\PSoC4/cyfitter_cfg.c **** *
 237:.\Generated_Source\PSoC4/cyfitter_cfg.c **** * Parameters:
 238:.\Generated_Source\PSoC4/cyfitter_cfg.c **** *  void
 239:.\Generated_Source\PSoC4/cyfitter_cfg.c **** *
 240:.\Generated_Source\PSoC4/cyfitter_cfg.c **** * Return:
 241:.\Generated_Source\PSoC4/cyfitter_cfg.c **** *  void
 242:.\Generated_Source\PSoC4/cyfitter_cfg.c **** *
 243:.\Generated_Source\PSoC4/cyfitter_cfg.c **** *******************************************************************************/
 244:.\Generated_Source\PSoC4/cyfitter_cfg.c **** static void AnalogSetDefault(void);
 245:.\Generated_Source\PSoC4/cyfitter_cfg.c **** static void AnalogSetDefault(void)
 246:.\Generated_Source\PSoC4/cyfitter_cfg.c **** {
 247:.\Generated_Source\PSoC4/cyfitter_cfg.c **** 	CY_SET_XTND_REG32((void CYFAR *)CYREG_SAR_MUX_SWITCH0, 0x00000020u);
 248:.\Generated_Source\PSoC4/cyfitter_cfg.c **** 	SetAnalogRoutingPumps(1);
 249:.\Generated_Source\PSoC4/cyfitter_cfg.c **** }
 250:.\Generated_Source\PSoC4/cyfitter_cfg.c **** 
 251:.\Generated_Source\PSoC4/cyfitter_cfg.c **** 
 252:.\Generated_Source\PSoC4/cyfitter_cfg.c **** /*******************************************************************************
 253:.\Generated_Source\PSoC4/cyfitter_cfg.c **** * Function Name: SetAnalogRoutingPumps
 254:.\Generated_Source\PSoC4/cyfitter_cfg.c **** ********************************************************************************
 255:.\Generated_Source\PSoC4/cyfitter_cfg.c **** *
 256:.\Generated_Source\PSoC4/cyfitter_cfg.c **** * Summary:
 257:.\Generated_Source\PSoC4/cyfitter_cfg.c **** * Enables or disables the analog pumps feeding analog routing switches.
 258:.\Generated_Source\PSoC4/cyfitter_cfg.c **** * Intended to be called at startup, based on the Vdda system configuration;
 259:.\Generated_Source\PSoC4/cyfitter_cfg.c **** * may be called during operation when the user informs us that the Vdda voltage crossed the pump th
 260:.\Generated_Source\PSoC4/cyfitter_cfg.c **** *
 261:.\Generated_Source\PSoC4/cyfitter_cfg.c **** * Parameters:
 262:.\Generated_Source\PSoC4/cyfitter_cfg.c **** *  enabled - 1 to enable the pumps, 0 to disable the pumps
 263:.\Generated_Source\PSoC4/cyfitter_cfg.c **** *
 264:.\Generated_Source\PSoC4/cyfitter_cfg.c **** * Return:
 265:.\Generated_Source\PSoC4/cyfitter_cfg.c **** *  void
 266:.\Generated_Source\PSoC4/cyfitter_cfg.c **** *
 267:.\Generated_Source\PSoC4/cyfitter_cfg.c **** *******************************************************************************/
 268:.\Generated_Source\PSoC4/cyfitter_cfg.c **** void SetAnalogRoutingPumps(uint8 enabled)
 269:.\Generated_Source\PSoC4/cyfitter_cfg.c **** {
 238              		.loc 1 269 0
ARM GAS  C:\DOCUME~1\Remixvit\LOCALS~1\Temp\ccuAltBW.s 			page 10


 239              		.cfi_startproc
 240              	.LVL18:
 270:.\Generated_Source\PSoC4/cyfitter_cfg.c **** 	uint32 regValue = CY_GET_XTND_REG32((void *)(CYREG_SAR_PUMP_CTRL));
 241              		.loc 1 270 0
 242 0000 064B     		ldr	r3, .L13
 243 0002 1B68     		ldr	r3, [r3]
 244              	.LVL19:
 271:.\Generated_Source\PSoC4/cyfitter_cfg.c **** 	if (enabled != 0u)
 245              		.loc 1 271 0
 246 0004 0028     		cmp	r0, #0
 247 0006 03D0     		beq	.L11
 272:.\Generated_Source\PSoC4/cyfitter_cfg.c **** 	{
 273:.\Generated_Source\PSoC4/cyfitter_cfg.c **** 		regValue |= 0x80000000u;
 248              		.loc 1 273 0
 249 0008 8022     		mov	r2, #128
 250 000a 1206     		lsl	r2, r2, #24
 251 000c 1343     		orr	r3, r2
 252              	.LVL20:
 253 000e 01E0     		b	.L12
 254              	.L11:
 274:.\Generated_Source\PSoC4/cyfitter_cfg.c **** 	}
 275:.\Generated_Source\PSoC4/cyfitter_cfg.c **** 	else
 276:.\Generated_Source\PSoC4/cyfitter_cfg.c **** 	{
 277:.\Generated_Source\PSoC4/cyfitter_cfg.c **** 		regValue &= ~0x80000000u;
 255              		.loc 1 277 0
 256 0010 5B00     		lsl	r3, r3, #1
 257              	.LVL21:
 258 0012 5B08     		lsr	r3, r3, #1
 259              	.LVL22:
 260              	.L12:
 278:.\Generated_Source\PSoC4/cyfitter_cfg.c **** 	}
 279:.\Generated_Source\PSoC4/cyfitter_cfg.c **** 	CY_SET_XTND_REG32((void *)(CYREG_SAR_PUMP_CTRL), regValue);
 261              		.loc 1 279 0
 262 0014 014A     		ldr	r2, .L13
 263 0016 1360     		str	r3, [r2]
 280:.\Generated_Source\PSoC4/cyfitter_cfg.c **** }
 264              		.loc 1 280 0
 265              		@ sp needed
 266 0018 7047     		bx	lr
 267              	.L14:
 268 001a C046     		.align	2
 269              	.L13:
 270 001c 80031A40 		.word	1075446656
 271              		.cfi_endproc
 272              	.LFE6:
 273              		.size	SetAnalogRoutingPumps, .-SetAnalogRoutingPumps
 274              		.section	.text.AnalogSetDefault,"ax",%progbits
 275              		.align	2
 276              		.code	16
 277              		.thumb_func
 278              		.type	AnalogSetDefault, %function
 279              	AnalogSetDefault:
 280              	.LFB5:
 246:.\Generated_Source\PSoC4/cyfitter_cfg.c **** 	CY_SET_XTND_REG32((void CYFAR *)CYREG_SAR_MUX_SWITCH0, 0x00000020u);
 281              		.loc 1 246 0
 282              		.cfi_startproc
 283 0000 08B5     		push	{r3, lr}
ARM GAS  C:\DOCUME~1\Remixvit\LOCALS~1\Temp\ccuAltBW.s 			page 11


 284              		.cfi_def_cfa_offset 8
 285              		.cfi_offset 3, -8
 286              		.cfi_offset 14, -4
 247:.\Generated_Source\PSoC4/cyfitter_cfg.c **** 	SetAnalogRoutingPumps(1);
 287              		.loc 1 247 0
 288 0002 2022     		mov	r2, #32
 289 0004 024B     		ldr	r3, .L16
 290 0006 1A60     		str	r2, [r3]
 248:.\Generated_Source\PSoC4/cyfitter_cfg.c **** }
 291              		.loc 1 248 0
 292 0008 0120     		mov	r0, #1
 293 000a FFF7FEFF 		bl	SetAnalogRoutingPumps
 294              	.LVL23:
 249:.\Generated_Source\PSoC4/cyfitter_cfg.c **** 
 295              		.loc 1 249 0
 296              		@ sp needed
 297 000e 08BD     		pop	{r3, pc}
 298              	.L17:
 299              		.align	2
 300              	.L16:
 301 0010 00031A40 		.word	1075446528
 302              		.cfi_endproc
 303              	.LFE5:
 304              		.size	AnalogSetDefault, .-AnalogSetDefault
 305              		.section	.psocinit
 306              		.align	2
 307              		.global	cyfitter_cfg
 308              		.code	16
 309              		.thumb_func
 310              		.type	cyfitter_cfg, %function
 311              	cyfitter_cfg:
 312              	.LFB7:
 281:.\Generated_Source\PSoC4/cyfitter_cfg.c **** 
 282:.\Generated_Source\PSoC4/cyfitter_cfg.c **** #define CY_AMUX_UNUSED CYREG_CM0_ROM_DWT
 283:.\Generated_Source\PSoC4/cyfitter_cfg.c **** 
 284:.\Generated_Source\PSoC4/cyfitter_cfg.c **** 
 285:.\Generated_Source\PSoC4/cyfitter_cfg.c **** /*******************************************************************************
 286:.\Generated_Source\PSoC4/cyfitter_cfg.c **** * Function Name: cyfitter_cfg
 287:.\Generated_Source\PSoC4/cyfitter_cfg.c **** ********************************************************************************
 288:.\Generated_Source\PSoC4/cyfitter_cfg.c **** * Summary:
 289:.\Generated_Source\PSoC4/cyfitter_cfg.c **** *  This function is called by the start-up code for the selected device. It
 290:.\Generated_Source\PSoC4/cyfitter_cfg.c **** *  performs all of the necessary device configuration based on the design
 291:.\Generated_Source\PSoC4/cyfitter_cfg.c **** *  settings.  This includes settings from the Design Wide Resources (DWR) such
 292:.\Generated_Source\PSoC4/cyfitter_cfg.c **** *  as Clocks and Pins as well as any component configuration that is necessary.
 293:.\Generated_Source\PSoC4/cyfitter_cfg.c **** *
 294:.\Generated_Source\PSoC4/cyfitter_cfg.c **** * Parameters:  
 295:.\Generated_Source\PSoC4/cyfitter_cfg.c **** *   void
 296:.\Generated_Source\PSoC4/cyfitter_cfg.c **** *
 297:.\Generated_Source\PSoC4/cyfitter_cfg.c **** * Return:
 298:.\Generated_Source\PSoC4/cyfitter_cfg.c **** *   void
 299:.\Generated_Source\PSoC4/cyfitter_cfg.c **** *
 300:.\Generated_Source\PSoC4/cyfitter_cfg.c **** *******************************************************************************/
 301:.\Generated_Source\PSoC4/cyfitter_cfg.c **** CY_CFG_SECTION
 302:.\Generated_Source\PSoC4/cyfitter_cfg.c **** void cyfitter_cfg(void)
 303:.\Generated_Source\PSoC4/cyfitter_cfg.c **** {
 313              		.loc 1 303 0
 314              		.cfi_startproc
ARM GAS  C:\DOCUME~1\Remixvit\LOCALS~1\Temp\ccuAltBW.s 			page 12


 315 00bc 10B5     		push	{r4, lr}
 316              		.cfi_def_cfa_offset 8
 317              		.cfi_offset 4, -8
 318              		.cfi_offset 14, -4
 304:.\Generated_Source\PSoC4/cyfitter_cfg.c **** 	/* Disable interrupts by default. Let user enable if/when they want. */
 305:.\Generated_Source\PSoC4/cyfitter_cfg.c **** 	CyGlobalIntDisable;
 319              		.loc 1 305 0
 320              	@ 305 ".\Generated_Source\PSoC4\cyfitter_cfg.c" 1
 321 00be 72B6     		CPSID   i
 322              	@ 0 "" 2
 323              	.LVL24:
 324              		.code	16
 325              	.LBB3:
 306:.\Generated_Source\PSoC4/cyfitter_cfg.c **** 
 307:.\Generated_Source\PSoC4/cyfitter_cfg.c **** 	{
 308:.\Generated_Source\PSoC4/cyfitter_cfg.c **** 		static const uint32 CYCODE cy_cfg_addr_table[] = {
 309:.\Generated_Source\PSoC4/cyfitter_cfg.c **** 			0x400F0001u, /* Base address: 0x400F0000 Count: 1 */
 310:.\Generated_Source\PSoC4/cyfitter_cfg.c **** 			0x400F302Eu, /* Base address: 0x400F3000 Count: 46 */
 311:.\Generated_Source\PSoC4/cyfitter_cfg.c **** 			0x400F311Cu, /* Base address: 0x400F3100 Count: 28 */
 312:.\Generated_Source\PSoC4/cyfitter_cfg.c **** 			0x400F3304u, /* Base address: 0x400F3300 Count: 4 */
 313:.\Generated_Source\PSoC4/cyfitter_cfg.c **** 			0x400F4203u, /* Base address: 0x400F4200 Count: 3 */
 314:.\Generated_Source\PSoC4/cyfitter_cfg.c **** 			0x400F4302u, /* Base address: 0x400F4300 Count: 2 */
 315:.\Generated_Source\PSoC4/cyfitter_cfg.c **** 			0x400F6002u, /* Base address: 0x400F6000 Count: 2 */
 316:.\Generated_Source\PSoC4/cyfitter_cfg.c **** 		};
 317:.\Generated_Source\PSoC4/cyfitter_cfg.c **** 
 318:.\Generated_Source\PSoC4/cyfitter_cfg.c **** 		static const cy_cfg_addrvalue_t CYCODE cy_cfg_data_table[] = {
 319:.\Generated_Source\PSoC4/cyfitter_cfg.c **** 			{0x80u, 0x0Fu},
 320:.\Generated_Source\PSoC4/cyfitter_cfg.c **** 			{0x06u, 0x0Du},
 321:.\Generated_Source\PSoC4/cyfitter_cfg.c **** 			{0x0Du, 0x08u},
 322:.\Generated_Source\PSoC4/cyfitter_cfg.c **** 			{0x12u, 0x02u},
 323:.\Generated_Source\PSoC4/cyfitter_cfg.c **** 			{0x15u, 0x02u},
 324:.\Generated_Source\PSoC4/cyfitter_cfg.c **** 			{0x1Bu, 0x03u},
 325:.\Generated_Source\PSoC4/cyfitter_cfg.c **** 			{0x1Eu, 0x01u},
 326:.\Generated_Source\PSoC4/cyfitter_cfg.c **** 			{0x1Fu, 0x0Cu},
 327:.\Generated_Source\PSoC4/cyfitter_cfg.c **** 			{0x22u, 0x08u},
 328:.\Generated_Source\PSoC4/cyfitter_cfg.c **** 			{0x26u, 0x04u},
 329:.\Generated_Source\PSoC4/cyfitter_cfg.c **** 			{0x30u, 0x04u},
 330:.\Generated_Source\PSoC4/cyfitter_cfg.c **** 			{0x31u, 0x04u},
 331:.\Generated_Source\PSoC4/cyfitter_cfg.c **** 			{0x32u, 0x01u},
 332:.\Generated_Source\PSoC4/cyfitter_cfg.c **** 			{0x33u, 0x01u},
 333:.\Generated_Source\PSoC4/cyfitter_cfg.c **** 			{0x34u, 0x02u},
 334:.\Generated_Source\PSoC4/cyfitter_cfg.c **** 			{0x35u, 0x08u},
 335:.\Generated_Source\PSoC4/cyfitter_cfg.c **** 			{0x36u, 0x08u},
 336:.\Generated_Source\PSoC4/cyfitter_cfg.c **** 			{0x37u, 0x02u},
 337:.\Generated_Source\PSoC4/cyfitter_cfg.c **** 			{0x3Eu, 0x04u},
 338:.\Generated_Source\PSoC4/cyfitter_cfg.c **** 			{0x40u, 0x20u},
 339:.\Generated_Source\PSoC4/cyfitter_cfg.c **** 			{0x41u, 0x05u},
 340:.\Generated_Source\PSoC4/cyfitter_cfg.c **** 			{0x45u, 0xD1u},
 341:.\Generated_Source\PSoC4/cyfitter_cfg.c **** 			{0x46u, 0x05u},
 342:.\Generated_Source\PSoC4/cyfitter_cfg.c **** 			{0x47u, 0x20u},
 343:.\Generated_Source\PSoC4/cyfitter_cfg.c **** 			{0x48u, 0x27u},
 344:.\Generated_Source\PSoC4/cyfitter_cfg.c **** 			{0x49u, 0xFFu},
 345:.\Generated_Source\PSoC4/cyfitter_cfg.c **** 			{0x4Au, 0xFFu},
 346:.\Generated_Source\PSoC4/cyfitter_cfg.c **** 			{0x4Bu, 0xFFu},
 347:.\Generated_Source\PSoC4/cyfitter_cfg.c **** 			{0x4Du, 0xA0u},
 348:.\Generated_Source\PSoC4/cyfitter_cfg.c **** 			{0x4Fu, 0x04u},
 349:.\Generated_Source\PSoC4/cyfitter_cfg.c **** 			{0x50u, 0x18u},
ARM GAS  C:\DOCUME~1\Remixvit\LOCALS~1\Temp\ccuAltBW.s 			page 13


 350:.\Generated_Source\PSoC4/cyfitter_cfg.c **** 			{0x52u, 0x80u},
 351:.\Generated_Source\PSoC4/cyfitter_cfg.c **** 			{0x54u, 0x07u},
 352:.\Generated_Source\PSoC4/cyfitter_cfg.c **** 			{0x58u, 0x04u},
 353:.\Generated_Source\PSoC4/cyfitter_cfg.c **** 			{0x59u, 0x04u},
 354:.\Generated_Source\PSoC4/cyfitter_cfg.c **** 			{0x5Au, 0x04u},
 355:.\Generated_Source\PSoC4/cyfitter_cfg.c **** 			{0x5Bu, 0x04u},
 356:.\Generated_Source\PSoC4/cyfitter_cfg.c **** 			{0x5Fu, 0x01u},
 357:.\Generated_Source\PSoC4/cyfitter_cfg.c **** 			{0x60u, 0x40u},
 358:.\Generated_Source\PSoC4/cyfitter_cfg.c **** 			{0x62u, 0xC0u},
 359:.\Generated_Source\PSoC4/cyfitter_cfg.c **** 			{0x64u, 0x40u},
 360:.\Generated_Source\PSoC4/cyfitter_cfg.c **** 			{0x65u, 0x40u},
 361:.\Generated_Source\PSoC4/cyfitter_cfg.c **** 			{0x66u, 0xC0u},
 362:.\Generated_Source\PSoC4/cyfitter_cfg.c **** 			{0x68u, 0xC0u},
 363:.\Generated_Source\PSoC4/cyfitter_cfg.c **** 			{0x6Au, 0xC0u},
 364:.\Generated_Source\PSoC4/cyfitter_cfg.c **** 			{0x6Cu, 0xC0u},
 365:.\Generated_Source\PSoC4/cyfitter_cfg.c **** 			{0x6Eu, 0xC0u},
 366:.\Generated_Source\PSoC4/cyfitter_cfg.c **** 			{0x00u, 0x04u},
 367:.\Generated_Source\PSoC4/cyfitter_cfg.c **** 			{0x0Au, 0x40u},
 368:.\Generated_Source\PSoC4/cyfitter_cfg.c **** 			{0x0Bu, 0x02u},
 369:.\Generated_Source\PSoC4/cyfitter_cfg.c **** 			{0x10u, 0xA0u},
 370:.\Generated_Source\PSoC4/cyfitter_cfg.c **** 			{0x18u, 0x84u},
 371:.\Generated_Source\PSoC4/cyfitter_cfg.c **** 			{0x19u, 0x44u},
 372:.\Generated_Source\PSoC4/cyfitter_cfg.c **** 			{0x20u, 0x40u},
 373:.\Generated_Source\PSoC4/cyfitter_cfg.c **** 			{0x21u, 0x08u},
 374:.\Generated_Source\PSoC4/cyfitter_cfg.c **** 			{0x22u, 0x50u},
 375:.\Generated_Source\PSoC4/cyfitter_cfg.c **** 			{0x30u, 0xA0u},
 376:.\Generated_Source\PSoC4/cyfitter_cfg.c **** 			{0x31u, 0x08u},
 377:.\Generated_Source\PSoC4/cyfitter_cfg.c **** 			{0x38u, 0x40u},
 378:.\Generated_Source\PSoC4/cyfitter_cfg.c **** 			{0x40u, 0x04u},
 379:.\Generated_Source\PSoC4/cyfitter_cfg.c **** 			{0x48u, 0x22u},
 380:.\Generated_Source\PSoC4/cyfitter_cfg.c **** 			{0x49u, 0x01u},
 381:.\Generated_Source\PSoC4/cyfitter_cfg.c **** 			{0x50u, 0x82u},
 382:.\Generated_Source\PSoC4/cyfitter_cfg.c **** 			{0x53u, 0x01u},
 383:.\Generated_Source\PSoC4/cyfitter_cfg.c **** 			{0x59u, 0x05u},
 384:.\Generated_Source\PSoC4/cyfitter_cfg.c **** 			{0x5Au, 0xA0u},
 385:.\Generated_Source\PSoC4/cyfitter_cfg.c **** 			{0x72u, 0x40u},
 386:.\Generated_Source\PSoC4/cyfitter_cfg.c **** 			{0xC0u, 0x04u},
 387:.\Generated_Source\PSoC4/cyfitter_cfg.c **** 			{0xC2u, 0x09u},
 388:.\Generated_Source\PSoC4/cyfitter_cfg.c **** 			{0xC4u, 0x0Cu},
 389:.\Generated_Source\PSoC4/cyfitter_cfg.c **** 			{0xCCu, 0x0Eu},
 390:.\Generated_Source\PSoC4/cyfitter_cfg.c **** 			{0xCEu, 0x08u},
 391:.\Generated_Source\PSoC4/cyfitter_cfg.c **** 			{0xD0u, 0x04u},
 392:.\Generated_Source\PSoC4/cyfitter_cfg.c **** 			{0xD2u, 0x08u},
 393:.\Generated_Source\PSoC4/cyfitter_cfg.c **** 			{0xD6u, 0x0Fu},
 394:.\Generated_Source\PSoC4/cyfitter_cfg.c **** 			{0xA8u, 0x40u},
 395:.\Generated_Source\PSoC4/cyfitter_cfg.c **** 			{0xADu, 0x40u},
 396:.\Generated_Source\PSoC4/cyfitter_cfg.c **** 			{0xE8u, 0x01u},
 397:.\Generated_Source\PSoC4/cyfitter_cfg.c **** 			{0xECu, 0x08u},
 398:.\Generated_Source\PSoC4/cyfitter_cfg.c **** 			{0x5Bu, 0x04u},
 399:.\Generated_Source\PSoC4/cyfitter_cfg.c **** 			{0x5Cu, 0x08u},
 400:.\Generated_Source\PSoC4/cyfitter_cfg.c **** 			{0xD6u, 0x03u},
 401:.\Generated_Source\PSoC4/cyfitter_cfg.c **** 			{0xABu, 0x04u},
 402:.\Generated_Source\PSoC4/cyfitter_cfg.c **** 			{0xACu, 0x08u},
 403:.\Generated_Source\PSoC4/cyfitter_cfg.c **** 			{0x01u, 0x01u},
 404:.\Generated_Source\PSoC4/cyfitter_cfg.c **** 			{0x10u, 0x01u},
 405:.\Generated_Source\PSoC4/cyfitter_cfg.c **** 		};
 406:.\Generated_Source\PSoC4/cyfitter_cfg.c **** 
ARM GAS  C:\DOCUME~1\Remixvit\LOCALS~1\Temp\ccuAltBW.s 			page 14


 407:.\Generated_Source\PSoC4/cyfitter_cfg.c **** 
 408:.\Generated_Source\PSoC4/cyfitter_cfg.c **** 
 409:.\Generated_Source\PSoC4/cyfitter_cfg.c **** 		CYPACKED typedef struct {
 410:.\Generated_Source\PSoC4/cyfitter_cfg.c **** 			void CYFAR *address;
 411:.\Generated_Source\PSoC4/cyfitter_cfg.c **** 			uint16 size;
 412:.\Generated_Source\PSoC4/cyfitter_cfg.c **** 		} CYPACKED_ATTR cfg_memset_t;
 413:.\Generated_Source\PSoC4/cyfitter_cfg.c **** 
 414:.\Generated_Source\PSoC4/cyfitter_cfg.c **** 		static const cfg_memset_t CYCODE cfg_memset_list [] = {
 415:.\Generated_Source\PSoC4/cyfitter_cfg.c **** 			/* address, size */
 416:.\Generated_Source\PSoC4/cyfitter_cfg.c **** 			{(void CYFAR *)(CYDEV_UDB_P0_U0_BASE), 1024u},
 417:.\Generated_Source\PSoC4/cyfitter_cfg.c **** 			{(void CYFAR *)(CYDEV_UDB_DSI0_BASE), 1024u},
 418:.\Generated_Source\PSoC4/cyfitter_cfg.c **** 		};
 419:.\Generated_Source\PSoC4/cyfitter_cfg.c **** 
 420:.\Generated_Source\PSoC4/cyfitter_cfg.c **** 		uint8 CYDATA i;
 421:.\Generated_Source\PSoC4/cyfitter_cfg.c **** 
 422:.\Generated_Source\PSoC4/cyfitter_cfg.c **** 		/* Zero out critical memory blocks before beginning configuration */
 423:.\Generated_Source\PSoC4/cyfitter_cfg.c **** 		for (i = 0u; i < (sizeof(cfg_memset_list)/sizeof(cfg_memset_list[0])); i++)
 326              		.loc 1 423 0
 327 00c0 0024     		mov	r4, #0
 328 00c2 10E0     		b	.L19
 329              	.LVL25:
 330              	.L20:
 331              	.LBB4:
 424:.\Generated_Source\PSoC4/cyfitter_cfg.c **** 		{
 425:.\Generated_Source\PSoC4/cyfitter_cfg.c **** 			const cfg_memset_t CYCODE * CYDATA ms = &cfg_memset_list[i];
 426:.\Generated_Source\PSoC4/cyfitter_cfg.c **** 			CYMEMZERO(ms->address, (size_t)(uint32)(ms->size));
 332              		.loc 1 426 0 discriminator 3
 333 00c4 2C48     		ldr	r0, .L21
 334 00c6 6300     		lsl	r3, r4, #1
 335 00c8 1A19     		add	r2, r3, r4
 336 00ca 5200     		lsl	r2, r2, #1
 337 00cc 8218     		add	r2, r0, r2
 338 00ce 9188     		ldrh	r1, [r2, #4]
 339 00d0 1B19     		add	r3, r3, r4
 340 00d2 5B00     		lsl	r3, r3, #1
 341 00d4 1A5A     		ldrh	r2, [r3, r0]
 342 00d6 C318     		add	r3, r0, r3
 343 00d8 5888     		ldrh	r0, [r3, #2]
 344 00da 0004     		lsl	r0, r0, #16
 345 00dc 1043     		orr	r0, r2
 346 00de FFF7FEFF 		bl	CYMEMZERO
 347              	.LVL26:
 348              	.LBE4:
 423:.\Generated_Source\PSoC4/cyfitter_cfg.c **** 		{
 349              		.loc 1 423 0 discriminator 3
 350 00e2 0134     		add	r4, r4, #1
 351              	.LVL27:
 352 00e4 E4B2     		uxtb	r4, r4
 353              	.LVL28:
 354              	.L19:
 423:.\Generated_Source\PSoC4/cyfitter_cfg.c **** 		{
 355              		.loc 1 423 0 is_stmt 0 discriminator 1
 356 00e6 012C     		cmp	r4, #1
 357 00e8 ECD9     		bls	.L20
 427:.\Generated_Source\PSoC4/cyfitter_cfg.c **** 		}
 428:.\Generated_Source\PSoC4/cyfitter_cfg.c **** 
 429:.\Generated_Source\PSoC4/cyfitter_cfg.c **** 		cfg_write_bytes32(cy_cfg_addr_table, cy_cfg_data_table);
ARM GAS  C:\DOCUME~1\Remixvit\LOCALS~1\Temp\ccuAltBW.s 			page 15


 358              		.loc 1 429 0 is_stmt 1
 359 00ea 2349     		ldr	r1, .L21
 360 00ec 081C     		mov	r0, r1
 361 00ee 0C30     		add	r0, r0, #12
 362 00f0 2831     		add	r1, r1, #40
 363 00f2 FFF7FEFF 		bl	cfg_write_bytes32
 364              	.LVL29:
 430:.\Generated_Source\PSoC4/cyfitter_cfg.c **** 
 431:.\Generated_Source\PSoC4/cyfitter_cfg.c **** 		/* HSIOM Starting address: CYDEV_HSIOM_BASE */
 432:.\Generated_Source\PSoC4/cyfitter_cfg.c **** 		CY_SET_XTND_REG32((void CYFAR *)(CYREG_HSIOM_PORT_SEL2), 0x33000000u);
 365              		.loc 1 432 0
 366 00f6 CC22     		mov	r2, #204
 367 00f8 9205     		lsl	r2, r2, #22
 368 00fa 204B     		ldr	r3, .L21+4
 369 00fc 1A60     		str	r2, [r3]
 433:.\Generated_Source\PSoC4/cyfitter_cfg.c **** 		CY_SET_XTND_REG32((void CYFAR *)(CYREG_HSIOM_PORT_SEL3), 0x0000EEEEu);
 370              		.loc 1 433 0
 371 00fe 204A     		ldr	r2, .L21+8
 372 0100 204B     		ldr	r3, .L21+12
 373 0102 1A60     		str	r2, [r3]
 434:.\Generated_Source\PSoC4/cyfitter_cfg.c **** 		CY_SET_XTND_REG32((void CYFAR *)(CYREG_HSIOM_PORT_SEL4), 0x00000099u);
 374              		.loc 1 434 0
 375 0104 9922     		mov	r2, #153
 376 0106 204B     		ldr	r3, .L21+16
 377 0108 1A60     		str	r2, [r3]
 435:.\Generated_Source\PSoC4/cyfitter_cfg.c **** 
 436:.\Generated_Source\PSoC4/cyfitter_cfg.c **** 		/* UDB_PA_2 Starting address: CYDEV_UDB_PA2_BASE */
 437:.\Generated_Source\PSoC4/cyfitter_cfg.c **** 		CY_SET_XTND_REG32((void CYFAR *)(CYDEV_UDB_PA2_BASE), 0x00990000u);
 378              		.loc 1 437 0
 379 010a 9923     		mov	r3, #153
 380 010c 1B04     		lsl	r3, r3, #16
 381 010e 1F4A     		ldr	r2, .L21+20
 382 0110 1360     		str	r3, [r2]
 438:.\Generated_Source\PSoC4/cyfitter_cfg.c **** 		CY_SET_XTND_REG32((void CYFAR *)(CYREG_UDB_PA2_CFG8), 0x40000000u);
 383              		.loc 1 438 0
 384 0112 8021     		mov	r1, #128
 385 0114 C905     		lsl	r1, r1, #23
 386 0116 1E4A     		ldr	r2, .L21+24
 387 0118 1160     		str	r1, [r2]
 439:.\Generated_Source\PSoC4/cyfitter_cfg.c **** 
 440:.\Generated_Source\PSoC4/cyfitter_cfg.c **** 		/* UDB_PA_3 Starting address: CYDEV_UDB_PA3_BASE */
 441:.\Generated_Source\PSoC4/cyfitter_cfg.c **** 		CY_SET_XTND_REG32((void CYFAR *)(CYDEV_UDB_PA3_BASE), 0x00990000u);
 388              		.loc 1 441 0
 389 011a 1E4A     		ldr	r2, .L21+28
 390 011c 1360     		str	r3, [r2]
 442:.\Generated_Source\PSoC4/cyfitter_cfg.c **** 
 443:.\Generated_Source\PSoC4/cyfitter_cfg.c **** 		/* Enable digital routing */
 444:.\Generated_Source\PSoC4/cyfitter_cfg.c **** 		CY_SET_XTND_REG8((void *)CYREG_UDB_UDBIF_BANK_CTL, CY_GET_XTND_REG8((void *)CYREG_UDB_UDBIF_BANK_
 391              		.loc 1 444 0
 392 011e 1E4B     		ldr	r3, .L21+32
 393 0120 1978     		ldrb	r1, [r3]
 394 0122 0220     		mov	r0, #2
 395 0124 0222     		mov	r2, #2
 396 0126 0A43     		orr	r2, r1
 397 0128 1A70     		strb	r2, [r3]
 445:.\Generated_Source\PSoC4/cyfitter_cfg.c **** 
 446:.\Generated_Source\PSoC4/cyfitter_cfg.c **** 		/* Enable UDB array */
ARM GAS  C:\DOCUME~1\Remixvit\LOCALS~1\Temp\ccuAltBW.s 			page 16


 447:.\Generated_Source\PSoC4/cyfitter_cfg.c **** 		CY_SET_XTND_REG8((void *)CYREG_UDB_UDBIF_WAIT_CFG, (uint8)((CY_GET_XTND_REG8((void *)CYREG_UDB_UD
 398              		.loc 1 447 0
 399 012a 1C4C     		ldr	r4, .L21+36
 400              	.LVL30:
 401 012c 2278     		ldrb	r2, [r4]
 402 012e 3C21     		mov	r1, #60
 403 0130 8A43     		bic	r2, r1
 404 0132 2839     		sub	r1, r1, #40
 405 0134 0A43     		orr	r2, r1
 406 0136 2270     		strb	r2, [r4]
 448:.\Generated_Source\PSoC4/cyfitter_cfg.c **** 		CY_SET_XTND_REG8((void *)CYREG_UDB_UDBIF_BANK_CTL, (uint8)(CY_GET_XTND_REG8((void *)CYREG_UDB_UDB
 407              		.loc 1 448 0
 408 0138 1978     		ldrb	r1, [r3]
 409 013a 1622     		mov	r2, #22
 410 013c 0A43     		orr	r2, r1
 411 013e 1A70     		strb	r2, [r3]
 412              	.LBE3:
 449:.\Generated_Source\PSoC4/cyfitter_cfg.c **** 	}
 450:.\Generated_Source\PSoC4/cyfitter_cfg.c **** 
 451:.\Generated_Source\PSoC4/cyfitter_cfg.c **** 	/* Perform second pass device configuration. These items must be configured in specific order afte
 452:.\Generated_Source\PSoC4/cyfitter_cfg.c **** 	/* IOPINS0_2 Starting address: CYDEV_PRT2_BASE */
 453:.\Generated_Source\PSoC4/cyfitter_cfg.c **** 	CY_SET_XTND_REG32((void CYFAR *)(CYDEV_PRT2_BASE), 0x000000E0u);
 413              		.loc 1 453 0
 414 0140 E022     		mov	r2, #224
 415 0142 174B     		ldr	r3, .L21+40
 416 0144 1A60     		str	r2, [r3]
 454:.\Generated_Source\PSoC4/cyfitter_cfg.c **** 	CY_SET_XTND_REG32((void CYFAR *)(CYREG_PRT2_PC), 0x00D80000u);
 417              		.loc 1 454 0
 418 0146 D822     		mov	r2, #216
 419 0148 1204     		lsl	r2, r2, #16
 420 014a 164B     		ldr	r3, .L21+44
 421 014c 1A60     		str	r2, [r3]
 455:.\Generated_Source\PSoC4/cyfitter_cfg.c **** 	CY_SET_XTND_REG32((void CYFAR *)(CYREG_PRT2_PC2), 0x00000020u);
 422              		.loc 1 455 0
 423 014e 2022     		mov	r2, #32
 424 0150 154B     		ldr	r3, .L21+48
 425 0152 1A60     		str	r2, [r3]
 456:.\Generated_Source\PSoC4/cyfitter_cfg.c **** 
 457:.\Generated_Source\PSoC4/cyfitter_cfg.c **** 	/* IOPINS0_3 Starting address: CYDEV_PRT3_BASE */
 458:.\Generated_Source\PSoC4/cyfitter_cfg.c **** 	CY_SET_XTND_REG32((void CYFAR *)(CYDEV_PRT3_BASE), 0x00000003u);
 426              		.loc 1 458 0
 427 0154 1D3A     		sub	r2, r2, #29
 428 0156 154B     		ldr	r3, .L21+52
 429 0158 1A60     		str	r2, [r3]
 459:.\Generated_Source\PSoC4/cyfitter_cfg.c **** 	CY_SET_XTND_REG32((void CYFAR *)(CYREG_PRT3_PC), 0x00000DA4u);
 430              		.loc 1 459 0
 431 015a 154A     		ldr	r2, .L21+56
 432 015c 154B     		ldr	r3, .L21+60
 433 015e 1A60     		str	r2, [r3]
 460:.\Generated_Source\PSoC4/cyfitter_cfg.c **** 
 461:.\Generated_Source\PSoC4/cyfitter_cfg.c **** 	/* IOPINS0_4 Starting address: CYDEV_PRT4_BASE */
 462:.\Generated_Source\PSoC4/cyfitter_cfg.c **** 	CY_SET_XTND_REG32((void CYFAR *)(CYDEV_PRT4_BASE), 0x00000002u);
 434              		.loc 1 462 0
 435 0160 154B     		ldr	r3, .L21+64
 436 0162 1860     		str	r0, [r3]
 463:.\Generated_Source\PSoC4/cyfitter_cfg.c **** 	CY_SET_XTND_REG32((void CYFAR *)(CYREG_PRT4_PC), 0x00000031u);
 437              		.loc 1 463 0
ARM GAS  C:\DOCUME~1\Remixvit\LOCALS~1\Temp\ccuAltBW.s 			page 17


 438 0164 3122     		mov	r2, #49
 439 0166 154B     		ldr	r3, .L21+68
 440 0168 1A60     		str	r2, [r3]
 464:.\Generated_Source\PSoC4/cyfitter_cfg.c **** 	CY_SET_XTND_REG32((void CYFAR *)(CYREG_PRT4_PC2), 0x00000002u);
 441              		.loc 1 464 0
 442 016a 154B     		ldr	r3, .L21+72
 443 016c 1860     		str	r0, [r3]
 465:.\Generated_Source\PSoC4/cyfitter_cfg.c **** 
 466:.\Generated_Source\PSoC4/cyfitter_cfg.c **** 	/* Setup clocks based on selections from Clock DWR */
 467:.\Generated_Source\PSoC4/cyfitter_cfg.c **** 	ClockSetup();
 444              		.loc 1 467 0
 445 016e FFF747FF 		bl	ClockSetup
 446              	.LVL31:
 468:.\Generated_Source\PSoC4/cyfitter_cfg.c **** 
 469:.\Generated_Source\PSoC4/cyfitter_cfg.c **** 	/* Perform basic analog initialization to defaults */
 470:.\Generated_Source\PSoC4/cyfitter_cfg.c **** 	AnalogSetDefault();
 447              		.loc 1 470 0
 448 0172 FFF7FEFF 		bl	AnalogSetDefault
 449              	.LVL32:
 471:.\Generated_Source\PSoC4/cyfitter_cfg.c **** 
 472:.\Generated_Source\PSoC4/cyfitter_cfg.c **** }
 450              		.loc 1 472 0
 451              		@ sp needed
 452 0176 10BD     		pop	{r4, pc}
 453              	.L22:
 454              		.align	2
 455              	.L21:
 456 0178 00000000 		.word	.LANCHOR0
 457 017c 08000140 		.word	1073807368
 458 0180 EEEE0000 		.word	61166
 459 0184 0C000140 		.word	1073807372
 460 0188 10000140 		.word	1073807376
 461 018c 20500F40 		.word	1074745376
 462 0190 28500F40 		.word	1074745384
 463 0194 30500F40 		.word	1074745392
 464 0198 00700F40 		.word	1074753536
 465 019c 01700F40 		.word	1074753537
 466 01a0 00020440 		.word	1074004480
 467 01a4 08020440 		.word	1074004488
 468 01a8 18020440 		.word	1074004504
 469 01ac 00030440 		.word	1074004736
 470 01b0 A40D0000 		.word	3492
 471 01b4 08030440 		.word	1074004744
 472 01b8 00040440 		.word	1074004992
 473 01bc 08040440 		.word	1074005000
 474 01c0 18040440 		.word	1074005016
 475              		.cfi_endproc
 476              	.LFE7:
 477              		.size	cyfitter_cfg, .-cyfitter_cfg
 478              		.section	.rodata
 479              		.align	2
 480              		.set	.LANCHOR0,. + 0
 481              		.type	cfg_memset_list.4743, %object
 482              		.size	cfg_memset_list.4743, 12
 483              	cfg_memset_list.4743:
 484 0000 00300F40 		.word	1074737152
 485 0004 0004     		.short	1024
ARM GAS  C:\DOCUME~1\Remixvit\LOCALS~1\Temp\ccuAltBW.s 			page 18


 486 0006 00400F40 		.4byte	1074741248
 487 000a 0004     		.short	1024
 488              		.type	cy_cfg_addr_table.4737, %object
 489              		.size	cy_cfg_addr_table.4737, 28
 490              	cy_cfg_addr_table.4737:
 491 000c 01000F40 		.word	1074724865
 492 0010 2E300F40 		.word	1074737198
 493 0014 1C310F40 		.word	1074737436
 494 0018 04330F40 		.word	1074737924
 495 001c 03420F40 		.word	1074741763
 496 0020 02430F40 		.word	1074742018
 497 0024 02600F40 		.word	1074749442
 498              		.type	cy_cfg_data_table.4738, %object
 499              		.size	cy_cfg_data_table.4738, 172
 500              	cy_cfg_data_table.4738:
 501 0028 80       		.byte	-128
 502 0029 0F       		.byte	15
 503 002a 06       		.byte	6
 504 002b 0D       		.byte	13
 505 002c 0D       		.byte	13
 506 002d 08       		.byte	8
 507 002e 12       		.byte	18
 508 002f 02       		.byte	2
 509 0030 15       		.byte	21
 510 0031 02       		.byte	2
 511 0032 1B       		.byte	27
 512 0033 03       		.byte	3
 513 0034 1E       		.byte	30
 514 0035 01       		.byte	1
 515 0036 1F       		.byte	31
 516 0037 0C       		.byte	12
 517 0038 22       		.byte	34
 518 0039 08       		.byte	8
 519 003a 26       		.byte	38
 520 003b 04       		.byte	4
 521 003c 30       		.byte	48
 522 003d 04       		.byte	4
 523 003e 31       		.byte	49
 524 003f 04       		.byte	4
 525 0040 32       		.byte	50
 526 0041 01       		.byte	1
 527 0042 33       		.byte	51
 528 0043 01       		.byte	1
 529 0044 34       		.byte	52
 530 0045 02       		.byte	2
 531 0046 35       		.byte	53
 532 0047 08       		.byte	8
 533 0048 36       		.byte	54
 534 0049 08       		.byte	8
 535 004a 37       		.byte	55
 536 004b 02       		.byte	2
 537 004c 3E       		.byte	62
 538 004d 04       		.byte	4
 539 004e 40       		.byte	64
 540 004f 20       		.byte	32
 541 0050 41       		.byte	65
 542 0051 05       		.byte	5
ARM GAS  C:\DOCUME~1\Remixvit\LOCALS~1\Temp\ccuAltBW.s 			page 19


 543 0052 45       		.byte	69
 544 0053 D1       		.byte	-47
 545 0054 46       		.byte	70
 546 0055 05       		.byte	5
 547 0056 47       		.byte	71
 548 0057 20       		.byte	32
 549 0058 48       		.byte	72
 550 0059 27       		.byte	39
 551 005a 49       		.byte	73
 552 005b FF       		.byte	-1
 553 005c 4A       		.byte	74
 554 005d FF       		.byte	-1
 555 005e 4B       		.byte	75
 556 005f FF       		.byte	-1
 557 0060 4D       		.byte	77
 558 0061 A0       		.byte	-96
 559 0062 4F       		.byte	79
 560 0063 04       		.byte	4
 561 0064 50       		.byte	80
 562 0065 18       		.byte	24
 563 0066 52       		.byte	82
 564 0067 80       		.byte	-128
 565 0068 54       		.byte	84
 566 0069 07       		.byte	7
 567 006a 58       		.byte	88
 568 006b 04       		.byte	4
 569 006c 59       		.byte	89
 570 006d 04       		.byte	4
 571 006e 5A       		.byte	90
 572 006f 04       		.byte	4
 573 0070 5B       		.byte	91
 574 0071 04       		.byte	4
 575 0072 5F       		.byte	95
 576 0073 01       		.byte	1
 577 0074 60       		.byte	96
 578 0075 40       		.byte	64
 579 0076 62       		.byte	98
 580 0077 C0       		.byte	-64
 581 0078 64       		.byte	100
 582 0079 40       		.byte	64
 583 007a 65       		.byte	101
 584 007b 40       		.byte	64
 585 007c 66       		.byte	102
 586 007d C0       		.byte	-64
 587 007e 68       		.byte	104
 588 007f C0       		.byte	-64
 589 0080 6A       		.byte	106
 590 0081 C0       		.byte	-64
 591 0082 6C       		.byte	108
 592 0083 C0       		.byte	-64
 593 0084 6E       		.byte	110
 594 0085 C0       		.byte	-64
 595 0086 00       		.byte	0
 596 0087 04       		.byte	4
 597 0088 0A       		.byte	10
 598 0089 40       		.byte	64
 599 008a 0B       		.byte	11
ARM GAS  C:\DOCUME~1\Remixvit\LOCALS~1\Temp\ccuAltBW.s 			page 20


 600 008b 02       		.byte	2
 601 008c 10       		.byte	16
 602 008d A0       		.byte	-96
 603 008e 18       		.byte	24
 604 008f 84       		.byte	-124
 605 0090 19       		.byte	25
 606 0091 44       		.byte	68
 607 0092 20       		.byte	32
 608 0093 40       		.byte	64
 609 0094 21       		.byte	33
 610 0095 08       		.byte	8
 611 0096 22       		.byte	34
 612 0097 50       		.byte	80
 613 0098 30       		.byte	48
 614 0099 A0       		.byte	-96
 615 009a 31       		.byte	49
 616 009b 08       		.byte	8
 617 009c 38       		.byte	56
 618 009d 40       		.byte	64
 619 009e 40       		.byte	64
 620 009f 04       		.byte	4
 621 00a0 48       		.byte	72
 622 00a1 22       		.byte	34
 623 00a2 49       		.byte	73
 624 00a3 01       		.byte	1
 625 00a4 50       		.byte	80
 626 00a5 82       		.byte	-126
 627 00a6 53       		.byte	83
 628 00a7 01       		.byte	1
 629 00a8 59       		.byte	89
 630 00a9 05       		.byte	5
 631 00aa 5A       		.byte	90
 632 00ab A0       		.byte	-96
 633 00ac 72       		.byte	114
 634 00ad 40       		.byte	64
 635 00ae C0       		.byte	-64
 636 00af 04       		.byte	4
 637 00b0 C2       		.byte	-62
 638 00b1 09       		.byte	9
 639 00b2 C4       		.byte	-60
 640 00b3 0C       		.byte	12
 641 00b4 CC       		.byte	-52
 642 00b5 0E       		.byte	14
 643 00b6 CE       		.byte	-50
 644 00b7 08       		.byte	8
 645 00b8 D0       		.byte	-48
 646 00b9 04       		.byte	4
 647 00ba D2       		.byte	-46
 648 00bb 08       		.byte	8
 649 00bc D6       		.byte	-42
 650 00bd 0F       		.byte	15
 651 00be A8       		.byte	-88
 652 00bf 40       		.byte	64
 653 00c0 AD       		.byte	-83
 654 00c1 40       		.byte	64
 655 00c2 E8       		.byte	-24
 656 00c3 01       		.byte	1
ARM GAS  C:\DOCUME~1\Remixvit\LOCALS~1\Temp\ccuAltBW.s 			page 21


 657 00c4 EC       		.byte	-20
 658 00c5 08       		.byte	8
 659 00c6 5B       		.byte	91
 660 00c7 04       		.byte	4
 661 00c8 5C       		.byte	92
 662 00c9 08       		.byte	8
 663 00ca D6       		.byte	-42
 664 00cb 03       		.byte	3
 665 00cc AB       		.byte	-85
 666 00cd 04       		.byte	4
 667 00ce AC       		.byte	-84
 668 00cf 08       		.byte	8
 669 00d0 01       		.byte	1
 670 00d1 01       		.byte	1
 671 00d2 10       		.byte	16
 672 00d3 01       		.byte	1
 673              		.text
 674              	.Letext0:
 675              		.file 2 "c:\\program files\\cypress\\psoc creator\\3.3\\psoc creator\\import\\gnu\\arm\\4.9.3\\lib
 676              		.file 3 ".\\Generated_Source\\PSoC4\\cytypes.h"
 677              		.file 4 ".\\Generated_Source\\PSoC4\\CyLib.h"